ccollections
defaultdict
p0
(c__builtin__
list
p1
tp2
Rp3
S'PMC2171339'
p4
(lp5
(S'T61'
p6
cnumpy.core.multiarray
scalar
p7
(cnumpy
dtype
p8
(S'i8'
p9
I0
I1
tp10
Rp11
(I3
S'<'
p12
NNNI-1
I-1
I0
tp13
bS'\xaa\x00\x00\x00\x00\x00\x00\x00'
p14
tp15
Rp16
S'human and mouse'
p17
S'species:ncbi:9606'
p18
tp19
a(S'T17'
p20
I182
S'platelets'
p21
S'UA-CT-100034'
p22
tp23
a(S'T38'
p24
I55
S'platelet'
p25
S'UA-CT-100033'
p26
tp27
a(S'T39'
p28
I58
S'wild-type platelets with MnCl2 and fibrinogen'
p29
S'UA-CT-100042'
p30
tp31
a(S'T36'
p32
I39
S'platelets'
p33
g22
tp34
a(S'T35'
p35
I25
S'resting platelets'
p36
S'UA-CT-100036'
p37
tp38
a(S'T18'
p39
I159
S'hematopoietic and nonhematopoietic cells'
p40
S'UA-CT-100024'
p41
tp42
a(S'T19'
p43
I71
S'alphaIIbbeta3-SYF cells'
p44
S'UA-CLine-100055'
p45
tp46
a(S'T58'
p47
I-3
S'PTP-1B was cotransfected with c-Src into alphaIIbbeta3-SYF cells'
p48
S'UA-CT-100011'
p49
tp50
a(S'T59'
p51
I-3
S'fibrinogen binding to alphaIIbbeta3-SYF cells (Fig. 3 b) or platelets'
p52
S'UA-CT-100020'
p53
tp54
a(S'T50'
p55
I116
S'PTP-1B-/- platelets'
p56
S'UA-CT-100013'
p57
tp58
a(S'T52'
p59
I-3
S'fibrinogen binding to PTP-1B-/- platelets'
p60
S'UA-CT-100019'
p61
tp62
a(S'T54'
p63
I-3
S'PTP-1B-/- platelets'
p64
g57
tp65
a(S'T55'
p66
I70
S'mouse'
p67
S'species:ncbi:10090'
p68
tp69
a(S'T56'
p70
I72
S'alphaIIbbeta3-SYF cells expressing c-Src'
p71
S'UA-CT-100017'
p72
tp73
a(S'T57'
p74
I83
S'alphaIIbbeta3-SYF cells were transfected with selected c-Src mutants'
p75
S'UA-CT-100018'
p76
tp77
a(S'T7'
p78
I57
S'knockout mice that were deficient in PTP-1B (PTP-1B-/-) and wild-type (PTP-1B+/+) littermates'
p79
S'species:ncbi:10090'
p80
tp81
a(S'T4'
p82
I45
S'platelet'
p83
g26
tp84
a(S'T5'
p85
I61
S'PTP-1B+/+ platelets'
p86
S'UA-CT-100012'
p87
tp88
a(S'T2'
p89
I30
S'fibrinogen binding to platelets'
p90
S'UA-CT-100021'
p91
tp92
a(S'T1'
p93
I3
S'resting platelets'
p94
g37
tp95
a(S'T20'
p96
I165
S'fibroblasts'
p97
S'UA-CT-100023'
p98
tp99
a(S'T23'
p100
I19
S'platelets'
p101
g22
tp102
a(S'T22'
p103
g7
(g11
S'\xaa\x00\x00\x00\x00\x00\x00\x00'
p104
tp105
Rp106
S'human and mouse platelets'
p107
S'UA-CT-100025'
p108
tp109
a(S'T26'
p110
I19
S'osteoclasts'
p111
S'UA-CT-100032'
p112
tp113
a(S'T49'
p114
I-3
S'resting platelets'
p115
g37
tp116
a(S'T48'
p117
I14
S'platelets'
p118
g22
tp119
a(S'T47'
p120
I-3
S'fibrinogen-bound PTP-1B-/- platelets'
p121
S'UA-CT-100022'
p122
tp123
a(S'T62'
p124
g7
(g11
S'\xb8\x00\x00\x00\x00\x00\x00\x00'
p125
tp126
Rp127
S'fibrinogen binding to platelets'
p128
g91
tp129
asS'PMC1702562'
p130
(lp131
(S'T107'
p132
I86
S'HeLa cells'
p133
S'UA-CLine-100025'
p134
tp135
a(S'T104'
p136
g7
(g11
S')\x00\x00\x00\x00\x00\x00\x00'
p137
tp138
Rp139
S'alphaT3-1 cells'
p140
S'UA-CLine-100058'
p141
tp142
a(S'T106'
p143
I93
S'alphaT3-1 Cells'
p144
S'UA-CLine-100057'
p145
tp146
a(S'T116'
p147
g7
(g11
S'\xb2\x00\x00\x00\x00\x00\x00\x00'
p148
tp149
Rp150
S'alphaT3-1'
p151
S'UA-CLine-100056'
p152
tp153
a(S'T117'
p154
I240
S'alphaT3-1'
p155
g152
tp156
a(S'T114'
p157
I131
S'alphaT3-1 cells'
p158
g141
tp159
a(S'T115'
p160
I171
S'alphaT3-1 cells'
p161
g141
tp162
a(S'T112'
p163
g7
(g11
S'h\x01\x00\x00\x00\x00\x00\x00'
p164
tp165
Rp166
S'alphaT3-1'
p167
g152
tp168
a(S'T113'
p169
I128
S'293T cells'
p170
S'UA-CLine-100002'
p171
tp172
a(S'T110'
p173
I24
S'alphaT3-1 cells'
p174
g141
tp175
a(S'T111'
p176
I119
S'293T cells'
p177
g171
tp178
a(S'T109'
p179
I322
S'alphaT3-1'
p180
g152
tp181
a(S'T108'
p182
g7
(g11
S'n\x01\x00\x00\x00\x00\x00\x00'
p183
tp184
Rp185
S'293T cells'
p186
g171
tp187
a(S'T118'
p188
I360
S'alphaT3-1'
p189
g152
tp190
a(S'T119'
p191
g7
(g11
S'n\x01\x00\x00\x00\x00\x00\x00'
p192
tp193
Rp194
S'293T cells'
p195
g171
tp196
asS'PMC2211849'
p197
(lp198
(S'T152'
p199
I19
S'Fyn-/- mast cells'
p200
S'UA-CLine-100024'
p201
tp202
a(S'T153'
p203
I24
S'T cells'
p204
S'UA-CLine-100050'
p205
tp206
a(S'T150'
p207
g7
(g11
S'\x08\x00\x00\x00\x00\x00\x00\x00'
p208
tp209
Rp210
S'mast cells'
p211
S'UA-CLine-100062'
p212
tp213
a(S'T151'
p214
I17
S'Lyn-/- mast cells'
p215
S'UA-CLine-100033'
p216
tp217
a(S'T156'
p218
g7
(g11
S'&\x00\x00\x00\x00\x00\x00\x00'
p219
tp220
Rp221
S'NK cells'
p222
S'UA-CLine-100036'
p223
tp224
a(S'T157'
p225
g7
(g11
S'&\x00\x00\x00\x00\x00\x00\x00'
p226
tp227
Rp228
S'mast cells,'
p229
S'UA-CLine-100064'
p230
tp231
a(S'T154'
p232
I30
S'LAT-/- mast cells'
p233
S'UA-CLine-100032'
p234
tp235
a(S'T155'
p236
I38
S'B cells'
p237
S'UA-CT-100002'
p238
tp239
a(S'T158'
p240
I40
S'mice'
p241
S'species:ncbi:10090'
p242
tp243
a(S'T178'
p244
g7
(g11
S'\xd6\x00\x00\x00\x00\x00\x00\x00'
p245
tp246
Rp247
S'mast cells'
p248
g212
tp249
a(S'T176'
p250
I188
S'mice'
p251
g242
tp252
a(S'T174'
p253
I178
S'mast cells'
p254
g212
tp255
a(S'T177'
p256
I212
S'mast cells'
p257
g212
tp258
a(S'T179'
p259
I215
S'WT and LAB-/- cell lines'
p260
S'UA-CLine-100054'
p261
tp262
a(S'T170'
p263
I170
S'mast cells'
p264
g212
tp265
a(S'T163'
p266
I152
S'Lyn-/- mast cells'
p267
g216
tp268
a(S'T171'
p269
I172
S'mast cells'
p270
g212
tp271
a(S'T172'
p272
I174
S'mast cells'
p273
g212
tp274
a(S'T181'
p275
I271
S'mast cells'
p276
g212
tp277
a(S'T180'
p278
g7
(g11
S'\xdc\x00\x00\x00\x00\x00\x00\x00'
p279
tp280
Rp281
S'BMMCs'
p282
S'UA-CLine-100011'
p283
tp284
a(S'T183'
p285
I312
S'mast cells'
p286
g212
tp287
a(S'T182'
p288
I284
S'mast cells'
p289
g212
tp290
a(S'T185'
p291
I318
S'mast cell'
p292
S'UA-CLine-100061'
p293
tp294
a(S'T186'
p295
I322
S'mast cells'
p296
g212
tp297
a(S'T175'
p298
I179
S'mast cell'
p299
g293
tp300
a(S'T162'
p301
I147
S'mice'
p302
g242
tp303
a(S'T167'
p304
I163
S'mice'
p305
g242
tp306
a(S'T166'
p307
I155
S'mast cells'
p308
g212
tp309
a(S'T165'
p310
I153
S'Fyn-/- cells'
p311
S'UA-CLine-100023'
p312
tp313
a(S'T164'
p314
I152
S'Fyn-/- cells'
p315
g312
tp316
a(S'T149'
p317
I3
S'mice'
p318
g242
tp319
a(S'T148'
p320
g7
(g11
S'\x17\x01\x00\x00\x00\x00\x00\x00'
p321
tp322
Rp323
S'mast cells.'
p324
S'UA-CLine-100065'
p325
tp326
a(S'T161'
p327
I146
S'mast cells'
p328
g212
tp329
a(S'T160'
p330
I142
S'mast cell'
p331
g293
tp332
a(S'T147'
p333
I1
S'NK cells,'
p334
S'UA-CLine-100037'
p335
tp336
a(S'T146'
p337
I38
S'B cells,'
p338
S'UA-CLine-100007'
p339
tp340
a(S'T169'
p341
I167
S'Mast Cells'
p342
S'UA-CLine-100035'
p343
tp344
a(S'T168'
p345
I165
S'mice'
p346
g242
tp347
a(S'T173'
p348
I175
S'mast cells'
p349
g212
tp350
asS'PMC2195799'
p351
(lp352
(S'T152'
p353
g7
(g11
S'~\x00\x00\x00\x00\x00\x00\x00'
p354
tp355
Rp356
S'mast cells'
p357
g212
tp358
a(S'T153'
p359
I143
S'Chinese hamster ovary (CHO) cells'
p360
S'UA-CLine-100021'
p361
tp362
a(S'T150'
p363
I30
S'RBL-2H3 mast cell line'
p364
S'UA-CLine-100044'
p365
tp366
a(S'T151'
p367
I34
S'mast cells'
p368
g212
tp369
a(S'T156'
p370
I200
S'CHO cells'
p371
S'UA-CLine-100019'
p372
tp373
a(S'T157'
p374
g7
(g11
S'\xde\x00\x00\x00\x00\x00\x00\x00'
p375
tp376
Rp377
S'mast cells'
p378
g212
tp379
a(S'T154'
p380
I131
S'TB1A2 cells'
p381
S'UA-CLine-100053'
p382
tp383
a(S'T155'
p384
I166
S'RBL-2H3 cells'
p385
S'UA-CLine-100043'
p386
tp387
a(S'T158'
p388
I84
S'RBL-2H3 cells'
p389
g386
tp390
a(S'T167'
p391
I292
S'RBL-2H3 cells'
p392
g386
tp393
a(S'T172'
p394
I37
S'was a gift'
p395
S'UA-CLine-100070'
p396
tp397
a(S'T168'
p398
I240
S'SLP-76-deficient T cells'
p399
S'UA-CLine-100047'
p400
tp401
a(S'T166'
p402
I299
S'RBL-2H3 cells'
p403
g386
tp404
a(S'T164'
p405
I320
S'RBL-2H3 cells'
p406
g386
tp407
a(S'T169'
p408
I255
S'RBL-2H3 cells'
p409
g386
tp410
a(S'T170'
p411
I276
S'Syk-deficient cells (-Syk)'
p412
S'UA-CLine-100048'
p413
tp414
a(S'T165'
p415
I304
S'RBL-2H3 cells'
p416
g386
tp417
asS'PMC2118421'
p418
(lp419
(S'T175'
p420
g7
(g11
S'\x10\x00\x00\x00\x00\x00\x00\x00'
p421
tp422
Rp423
S'mast cells'
p424
g212
tp425
a(S'T177'
p426
I25
S'mast cells'
p427
g212
tp428
a(S'T178'
p429
I92
S'mast cells'
p430
g212
tp431
a(S'T179'
p432
I120
S'mast cells'
p433
g212
tp434
a(S'T189'
p435
I170
S'mast cells'
p436
g212
tp437
a(S'T188'
p438
g7
(g11
S'H\x00\x00\x00\x00\x00\x00\x00'
p439
tp440
Rp441
S'BMMCs'
p442
g283
tp443
a(S'T181'
p444
g7
(g11
S'H\x00\x00\x00\x00\x00\x00\x00'
p445
tp446
Rp447
S'BMMCs'
p448
g283
tp449
a(S'T180'
p450
I76
S'mast cells'
p451
g212
tp452
a(S'T183'
p453
g7
(g11
S'H\x00\x00\x00\x00\x00\x00\x00'
p454
tp455
Rp456
S'BMMCs'
p457
g283
tp458
a(S'T182'
p459
g7
(g11
S'H\x00\x00\x00\x00\x00\x00\x00'
p460
tp461
Rp462
S'BMMCs'
p463
g283
tp464
a(S'T185'
p465
g7
(g11
S'H\x00\x00\x00\x00\x00\x00\x00'
p466
tp467
Rp468
S'BMMCs'
p469
g283
tp470
a(S'T187'
p471
I141
S'BMMCs'
p472
g283
tp473
a(S'T186'
p474
I85
S'BMMCs'
p475
g283
tp476
a(S'T200'
p477
I303
S'mast cells'
p478
g212
tp479
a(S'T198'
p480
g7
(g11
S'\xf7\x00\x00\x00\x00\x00\x00\x00'
p481
tp482
Rp483
S'mast cells'
p484
g212
tp485
a(S'T199'
p486
I270
S'mast cells'
p487
g212
tp488
a(S'T196'
p489
I231
S'mast cells'
p490
g212
tp491
a(S'T197'
p492
I236
S'mast cells'
p493
g212
tp494
a(S'T194'
p495
I213
S'mast cells is'
p496
S'UA-CLine-100063'
p497
tp498
a(S'T195'
p499
I220
S'mast cells'
p500
g212
tp501
a(S'T192'
p502
I205
S'mast cells'
p503
g212
tp504
a(S'T193'
p505
I212
S'mast cells'
p506
g212
tp507
a(S'T190'
p508
I184
S'mast cells'
p509
g212
tp510
a(S'T191'
p511
I185
S'BMMCs'
p512
g283
tp513
asS'PMC2168101'
p514
(lp515
(S'T108'
p516
I137
S'COS-7 cells'
p517
S'UA-CLine-100020'
p518
tp519
a(S'T101'
p520
g7
(g11
S'3\x00\x00\x00\x00\x00\x00\x00'
p521
tp522
Rp523
S'293 cells'
p524
S'UA-CLine-100001'
p525
tp526
a(S'T100'
p527
g7
(g11
S'0\x00\x00\x00\x00\x00\x00\x00'
p528
tp529
Rp530
S'Rat-1 cell'
p531
S'UA-CLine-100045'
p532
tp533
a(S'T103'
p534
g7
(g11
S'K\x00\x00\x00\x00\x00\x00\x00'
p535
tp536
Rp537
S'Purkinje cells'
p538
S'UA-CLine-100042'
p539
tp540
a(S'T102'
p541
I61
S'COS-7 cells'
p542
g518
tp543
a(S'T98'
p544
I41
S'COS-7 cells'
p545
g518
tp546
a(S'T99'
p547
I43
S'COS-7 cells'
p548
g518
tp549
a(S'T107'
p550
I116
S'293 cells'
p551
g525
tp552
a(S'T106'
p553
g7
(g11
S'g\x00\x00\x00\x00\x00\x00\x00'
p554
tp555
Rp556
S'COS-7 cells'
p557
g518
tp558
a(S'T105'
p559
I86
S'COS-7 cells'
p560
g518
tp561
a(S'T97'
p562
I5
S'COS-7 cells'
p563
g518
tp564
a(S'T104'
p565
I75
S'brain'
p566
S'UA-CT-200001'
p567
tp568
asS'PMC2148195'
p569
(lp570
(S'T105'
p571
g7
(g11
S'\xd3\x00\x00\x00\x00\x00\x00\x00'
p572
tp573
Rp574
S'oocyte'
p575
S'UA-CT-100030'
p576
tp577
a(S'T101'
p578
I249
S'Oocytes'
p579
S'UA-CT-100007'
p580
tp581
a(S'T100'
p582
g7
(g11
S'\xe5\x00\x00\x00\x00\x00\x00\x00'
p583
tp584
Rp585
S'oocytes'
p586
S'UA-CT-100031'
p587
tp588
a(S'T103'
p589
I223
S'LA25 cells'
p590
S'UA-CLine-100031'
p591
tp592
a(S'T102'
p593
I287
S'oocytes'
p594
g587
tp595
a(S'T98'
p596
I160
S'oocytes'
p597
g587
tp598
a(S'T106'
p599
I175
S'oocyte'
p600
g576
tp601
a(S'T94'
p602
I112
S'oocytes'
p603
g587
tp604
a(S'T95'
p605
g7
(g11
S'\xfd\x00\x00\x00\x00\x00\x00\x00'
p606
tp607
Rp608
S'Xenopus'
p609
S'species:ncbi:8354'
p610
tp611
a(S'T96'
p612
g7
(g11
S'\x03\x01\x00\x00\x00\x00\x00\x00'
p613
tp614
Rp615
S'oocytes'
p616
g587
tp617
a(S'T97'
p618
I146
S'oocytes'
p619
g587
tp620
a(S'T91'
p621
I8
S'rat kidney (NRK) cells'
p622
S'UA-CLine-100068'
p623
tp624
a(S'T92'
p625
I146
S'oocytes'
p626
g587
tp627
a(S'T93'
p628
I106
S'oocytes'
p629
g587
tp630
asS'PMC2156131'
p631
(lp632
(S'T72'
p633
g7
(g11
S'\x07\x00\x00\x00\x00\x00\x00\x00'
p634
tp635
Rp636
S'B82L cells'
p637
S'UA-CLine-100010'
p638
tp639
a(S'T73'
p640
g7
(g11
S'F\x00\x00\x00\x00\x00\x00\x00'
p641
tp642
Rp643
S'smooth muscle cells.'
p644
S'UA-CLine-100069'
p645
tp646
a(S'T76'
p647
g7
(g11
S'R\x00\x00\x00\x00\x00\x00\x00'
p648
tp649
Rp650
S'A-431 cells'
p651
S'UA-CLine-100004'
p652
tp653
a(S'T77'
p654
g7
(g11
S'V\x00\x00\x00\x00\x00\x00\x00'
p655
tp656
Rp657
S'PC-12 cells'
p658
S'UA-CLine-100040'
p659
tp660
a(S'T74'
p661
I72
S'fibroblasts'
p662
g98
tp663
a(S'T75'
p664
I72
S'endothelial cells'
p665
S'UA-CLine-100059'
p666
tp667
asS'PMC2199152'
p668
(lp669
(S'T138'
p670
I147
S'558Lmum3'
p671
S'UA-CLine-100003'
p672
tp673
a(S'T139'
p674
I177
S'J558Lmum3'
p675
S'UA-CLine-100027'
p676
tp677
a(S'T150'
p678
g7
(g11
S'\xe0\x00\x00\x00\x00\x00\x00\x00'
p679
tp680
Rp681
S'B cell'
p682
S'UA-CT-100001'
p683
tp684
a(S'T151'
p685
I268
S'J558Lmum3CD45+'
p686
S'UA-CLine-100028'
p687
tp688
a(S'T130'
p689
I7
S'B cell'
p690
g683
tp691
a(S'T131'
p692
I67
S'Human'
p693
S'species:ncbi:9606'
p694
tp695
a(S'T132'
p696
I68
S'plasmacytoma cell lines'
p697
S'UA-CLine-100067'
p698
tp699
a(S'T133'
p700
g7
(g11
S'\x02\x01\x00\x00\x00\x00\x00\x00'
p701
tp702
Rp703
S'J558Lmum3'
p704
g676
tp705
a(S'T134'
p706
g7
(g11
S'\x0c\x01\x00\x00\x00\x00\x00\x00'
p707
tp708
Rp709
S'J558Lmum3'
p710
g676
tp711
a(S'T135'
p712
g7
(g11
S'\x0c\x01\x00\x00\x00\x00\x00\x00'
p713
tp714
Rp715
S'J558Lmum3'
p716
g676
tp717
a(S'T136'
p718
I130
S'J558Lmum3'
p719
g676
tp720
a(S'T137'
p721
I140
S'J558Lmum3'
p722
g676
tp723
a(S'T149'
p724
I218
S'B cell'
p725
g683
tp726
a(S'T148'
p727
I212
S'B lymphocytes'
p728
S'UA-CLine-100009'
p729
tp730
a(S'T145'
p731
I198
S'CD19-positive plasmacytoma cell line'
p732
S'UA-CLine-100015'
p733
tp734
a(S'T144'
p735
I199
S'B cells'
p736
g238
tp737
a(S'T147'
p738
I205
S'CD19-positive and -negative cell lines'
p739
S'UA-CLine-100014'
p740
tp741
a(S'T146'
p742
I205
S'B cells'
p743
g238
tp744
a(S'T141'
p745
I177
S'mice'
p746
g242
tp747
a(S'T140'
p748
I177
S'B lymphocytes'
p749
g729
tp750
a(S'T143'
p751
I99
S'T cells'
p752
g205
tp753
a(S'T142'
p754
I184
S'B cells.'
p755
S'UA-CLine-100008'
p756
tp757
asS'PMC2212994'
p758
(lp759
(S'T61'
p760
g7
(g11
S'\xa3\x00\x00\x00\x00\x00\x00\x00'
p761
tp762
Rp763
S'DT40 cells'
p764
S'UA-CT-100004'
p765
tp766
a(S'T14'
p767
I-3
S'B cells'
p768
g238
tp769
a(S'T15'
p770
I67
S'B cells'
p771
g238
tp772
a(S'T16'
p773
I77
S'spleens'
p774
S'UA-CT-200004'
p775
tp776
a(S'T17'
p777
I15
S'DT40 wild-type (wt), PKCbeta- (PKCbeta-/-), and CARMA1-deficient (CARMA1-/-) DT40 B cells'
p778
S'UA-CT-100005'
p779
tp780
a(S'T39'
p781
I95
S'PKCbeta-deficient DT40 B cells'
p782
S'UA-CT-100009'
p783
tp784
a(S'T35'
p785
I95
S'TAK-deficient DT40 B cells'
p786
S'UA-CT-100014'
p787
tp788
a(S'T32'
p789
I56
S'DT40 B cells'
p790
S'UA-CT-100003'
p791
tp792
a(S'T33'
p793
I55
S'nonlymphoid cells'
p794
S'UA-CT-100029'
p795
tp796
a(S'T30'
p797
I66
S'DT40 B cells'
p798
g791
tp799
a(S'T31'
p800
I60
S'wild-type or TAK-/- DT40 cells'
p801
S'UA-CT-100041'
p802
tp803
a(S'T58'
p804
I101
S'PKCbeta-/- cells'
p805
S'UA-CT-100008'
p806
tp807
a(S'T18'
p808
I27
S'B cells'
p809
g238
tp810
a(S'T52'
p811
I97
S'wild-type and PKCbeta-deficient DT40 B cells'
p812
S'UA-CT-100038'
p813
tp814
a(S'T56'
p815
I100
S'PKCbeta-deficient DT40 cells'
p816
S'UA-CT-100010'
p817
tp818
a(S'T19'
p819
I-3
S'immature and naive B lymphocytes'
p820
S'UA-CT-100026'
p821
tp822
a(S'T1'
p823
I1
S'B cell'
p824
g683
tp825
a(S'T29'
p826
I51
S'DT40 B cells'
p827
g791
tp828
a(S'T28'
p829
I35
S'B cells'
p830
g238
tp831
a(S'T21'
p832
I27
S'murine'
p833
S'species:ncbi:10090'
p834
tp835
a(S'T20'
p836
I-3
S'mature B cells'
p837
S'UA-CT-100027'
p838
tp839
a(S'T22'
p840
I57
S'TAK1-deficient cells'
p841
S'UA-CT-100016'
p842
tp843
a(S'T27'
p844
I49
S'DT40 B cells'
p845
g791
tp846
a(S'T26'
p847
I45
S'TAK1-deficient DT40 B cells'
p848
S'UA-CLine-6143'
p849
tp850
a(S'T49'
p851
I-3
S'C57BL/6J mice'
p852
S'species:ncbi:10090'
p853
tp854
a(S'T48'
p855
I31
S'DT40 B cells'
p856
g791
tp857
a(S'T43'
p858
I129
S'wild-type and PKCbeta-deficient DT40 cells'
p859
S'UA-CT-100039'
p860
tp861
a(S'T41'
p862
I113
S'DT40 B cells'
p863
g791
tp864
a(S'T40'
p865
I100
S'wild-type or PKCbeta-/- DT40 cells'
p866
S'UA-CT-100040'
p867
tp868
a(S'T47'
p869
I154
S'wild-type DT40 cells'
p870
S'UA-CT-100037'
p871
tp872
a(S'T60'
p873
I121
S'B cells'
p874
g238
tp875
a(S'T44'
p876
I130
S'TAK1-deficient DT40 cells'
p877
S'UA-CT-100015'
p878
tp879
a(S'T51'
p880
I68
S'primary B cells after BCR stimulation'
p881
S'UA-CT-100035'
p882
tp883
asS'PMC3355962'
p884
(lp885
(S'T7'
p886
g7
(g11
S'\xdb\x00\x00\x00\x00\x00\x00\x00'
p887
tp888
Rp889
S'mouse embryonic fibroblasts'
p890
S'UA-CT-100028'
p891
tp892
a(S'T5'
p893
g7
(g11
S'\xeb\x00\x00\x00\x00\x00\x00\x00'
p894
tp895
Rp896
S'CHO and smooth muscle cells'
p897
S'UA-CLine-100018'
p898
tp899
a(S'T3'
p900
I226
S'NIH3T3 fibroblasts'
p901
S'UA-CT-100006'
p902
tp903
a(S'T1'
p904
g7
(g11
S'\x1c\x01\x00\x00\x00\x00\x00\x00'
p905
tp906
Rp907
S'In breast cancer cells,'
p908
S'UA-CLine-100026'
p909
tp910
asS'PMC2386837'
p911
(lp912
(S'T107'
p913
I0
S'Drosophila'
p914
S'species:ncbi:7227'
p915
tp916
a(S'T123'
p917
I156
S'S2 cells'
p918
S'UA-CLine-100046'
p919
tp920
a(S'T122'
p921
g7
(g11
S'\x9a\x00\x00\x00\x00\x00\x00\x00'
p922
tp923
Rp924
S'S2 cells'
p925
g919
tp926
a(S'T121'
p927
g7
(g11
S'\x96\x01\x00\x00\x00\x00\x00\x00'
p928
tp929
Rp930
S'S2 cells'
p931
g919
tp932
a(S'T127'
p933
I211
S'S2 cells'
p934
g919
tp935
a(S'T126'
p936
I-3
S'S2 cells'
p937
g919
tp938
a(S'T125'
p939
I169
S'S2 cells'
p940
g919
tp941
a(S'T124'
p942
I167
S'S2 cells'
p943
g919
tp944
a(S'T116'
p945
I91
S'embryos'
p946
S'UA-CT-200003'
p947
tp948
a(S'T117'
p949
I111
S'embryo'
p950
S'UA-CT-200002'
p951
tp952
a(S'T114'
p953
I111
S'fly'
p954
S'species:ncbi:7227'
p955
tp956
a(S'T115'
p957
I73
S'embryos'
p958
g947
tp959
a(S'T112'
p960
I263
S'Drosophila'
p961
S'species:ncbi:7227'
p962
tp963
a(S'T113'
p964
I349
S'Drosophila'
p965
S'species:ncbi:7227'
p966
tp967
a(S'T110'
p968
g7
(g11
S'\xde\x01\x00\x00\x00\x00\x00\x00'
p969
tp970
Rp971
S'Drosophila'
p972
S'species:ncbi:7227'
p973
tp974
a(S'T111'
p975
I125
S'S2 cells'
p976
g919
tp977
a(S'T109'
p978
I46
S'mouse'
p979
g68
tp980
a(S'T108'
p981
I32
S'Drosophila'
p982
S'species:ncbi:7227'
p983
tp984
a(S'T118'
p985
I114
S'embryos'
p986
g947
tp987
a(S'T119'
p988
I114
S'fly'
p989
S'species:ncbi:7227'
p990
tp991
asS'PMC2118676'
p992
(lp993
(S'T130'
p994
I158
S'Be13'
p995
S'UA-CLine-100012'
p996
tp997
a(S'T131'
p998
I158
S'P12-ICHIKAWA'
p999
S'UA-CLine-100039'
p1000
tp1001
a(S'T132'
p1002
I164
S'T-ALL lines a'
p1003
S'UA-CLine-100052'
p1004
tp1005
a(S'T133'
p1006
I179
S'mice'
p1007
g242
tp1008
a(S'T134'
p1009
I178
S'T-ALL'
p1010
S'UA-CLine-100051'
p1011
tp1012
a(S'T135'
p1013
I195
S'T-ALL'
p1014
g1011
tp1015
a(S'T53'
p1016
g7
(g11
S'\x9e\x00\x00\x00\x00\x00\x00\x00'
p1017
tp1018
Rp1019
S'KOPTK1'
p1020
S'UA-CLine-100030'
p1021
tp1022
a(S'T129'
p1023
I149
S'CEM'
p1024
S'UA-CLine-100016'
p1025
tp1026
a(S'T128'
p1027
I149
S'P12-ICHICAWA'
p1028
S'UA-CLine-100038'
p1029
tp1030
a(S'T123'
p1031
I134
S'T-ALL'
p1032
g1011
tp1033
a(S'T122'
p1034
I129
S'T-ALL'
p1035
g1011
tp1036
a(S'T121'
p1037
I108
S'T-ALL'
p1038
g1011
tp1039
a(S'T120'
p1040
I109
S'DND41 cells'
p1041
S'UA-CLine-100022'
p1042
tp1043
a(S'T127'
p1044
I149
S'Be13'
p1045
g996
tp1046
a(S'T126'
p1047
I149
S'KOPTK'
p1048
S'UA-CLine-100029'
p1049
tp1050
a(S'T125'
p1051
I140
S'CEM cells'
p1052
S'UA-CLine-100017'
p1053
tp1054
a(S'T124'
p1055
I135
S'CEM cells'
p1056
g1053
tp1057
a(S'T116'
p1058
I56
S'Bosc23 cells'
p1059
S'UA-CLine-100013'
p1060
tp1061
a(S'T117'
p1062
I99
S'T-ALL'
p1063
g1011
tp1064
a(S'T114'
p1065
I47
S'Bosc23 cells'
p1066
g1060
tp1067
a(S'T115'
p1068
I43
S'Bosc23 cells'
p1069
g1060
tp1070
a(S'T112'
p1071
g7
(g11
S'\xa4\x00\x00\x00\x00\x00\x00\x00'
p1072
tp1073
Rp1074
S'human'
p1075
S'species:ncbi:9606'
p1076
tp1077
a(S'T111'
p1078
I0
S'T cell l'
p1079
S'UA-CLine-100049'
p1080
tp1081
a(S'T118'
p1082
I7
S'T-ALL'
p1083
g1011
tp1084
asS'PMC3174055'
p1085
(lp1086
(S'T37'
p1087
I181
S'mice'
p1088
g242
tp1089
a(S'T40'
p1090
I222
S'PTEN-deficient cells'
p1091
S'UA-CLine-100041'
p1092
tp1093
a(S'T38'
p1094
g7
(g11
S'\xda\x00\x00\x00\x00\x00\x00\x00'
p1095
tp1096
Rp1097
S'MCF7 cells'
p1098
S'UA-CLine-100034'
p1099
tp1100
as.