ccollections
defaultdict
p0
(c__builtin__
list
p1
tp2
Rp3
S'PMC2171339'
p4
(lp5
(S'E22'
p6
cnumpy.core.multiarray
scalar
p7
(cnumpy
dtype
p8
(S'i8'
p9
I0
I1
tp10
Rp11
(I3
S'<'
p12
NNNI-1
I-1
I0
tp13
bS'\x03\x00\x00\x00\x00\x00\x00\x00'
p14
tp15
Rp16
S'phosphorylates c-Src tyrosine 529'
p17
S'T1'
p18
tp19
a(S'E42'
p20
I4
S'Fibrinogen binding to alphaIIbbeta3'
p21
S'T1'
p22
tp23
a(S'E14'
p24
g7
(g11
S'\x0e\x00\x00\x00\x00\x00\x00\x00'
p25
tp26
Rp27
S'association between integrin alphaIIbbeta3 and c-Src'
p28
S'T48'
p29
tp30
a(S'E49'
p31
g7
(g11
S'\x13\x00\x00\x00\x00\x00\x00\x00'
p32
tp33
Rp34
S'phosphorylation of c-Src'
p35
S'T23'
p36
tp37
a(g31
g7
(g11
S'\x13\x00\x00\x00\x00\x00\x00\x00'
p38
tp39
Rp40
S'phosphorylation of c-Src'
p41
S'T26'
p42
tp43
a(S'E33'
p44
I25
S'Phosphorylation of c-Src tyrosine 529 is catalyzed by Csk'
p45
S'T35'
p46
tp47
a(S'E32'
p48
g7
(g11
S'\x1f\x00\x00\x00\x00\x00\x00\x00'
p49
tp50
Rp51
S'phosphorylation of c-Src tyrosine 529 by Csk'
p52
S'T2'
p53
tp54
a(S'E52'
p55
I39
S'Interactions between PTP-1B, alphaIIbbeta3, and c-Src'
p56
S'T36'
p57
tp58
a(S'E38'
p59
I45
S'PTP-1B in platelet tyrosine phosphorylation'
p60
S'T4'
p61
tp62
a(S'E26'
p63
g7
(g11
S'7\x00\x00\x00\x00\x00\x00\x00'
p64
tp65
Rp66
S'fibrinogen binding to alphaIIbbeta3'
p67
S'T38'
p68
tp69
a(S'E46'
p70
I58
S'phosphorylation of numerous proteins. In contrast, PTP-1B-/-'
p71
S'T7'
p72
tp73
ag73
a(S'E43'
p74
I60
S'phosphorylation of activation loop tyrosine 418. Whereas fibrinogen'
p75
S'T5'
p76
tp77
a(S'E12'
p78
I61
S'PTP-1B+/+ platelets stimulated phosphorylation'
p79
S'T5'
p80
tp81
a(S'E24'
p82
I-1
S'phosphorylation of c-Src tyrosine 529'
p83
S'T47'
p84
tp85
a(S'E18'
p86
I-1
S'phosphorylation of tyrosine 529 by Csk'
p87
S'T47'
p88
tp89
a(S'E53'
p90
I-1
S'Csk is normally associated with the alphaIIbbeta3-c-Src complex'
p91
S'T49'
p92
tp93
a(S'E54'
p94
I-1
S'Csk failed to fully dissociate from alphaIIbbeta3 and c-Src'
p95
S'T52'
p96
tp97
a(S'E23'
p98
I-1
S'dephosphorylate c-Src tyrosine 529'
p99
S'T54'
p100
tp101
a(S'E39'
p102
I-1
S'interaction between Csk and the alphaIIbbeta3-c-Src complex'
p103
S'T54'
p104
tp105
a(S'E5'
p106
g7
(g11
S'F\x00\x00\x00\x00\x00\x00\x00'
p107
tp108
Rp109
S'interactions between PTP-1B, alphaIIbbeta3, and c-Src'
p110
S'T55'
p111
tp112
a(g106
g7
(g11
S'F\x00\x00\x00\x00\x00\x00\x00'
p113
tp114
Rp115
S'interactions between PTP-1B, alphaIIbbeta3, and c-Src'
p116
S'T19'
p117
tp118
a(S'E36'
p119
I74
S'fibrinogen-dependent interaction of PTP-1B'
p120
S'T56'
p121
tp122
a(S'E15'
p123
I88
S'binding of c-Src SH3 to PTP-1B'
p124
S'T57'
p125
tp126
a(S'E6'
p127
I-1
S'PTP-1B interaction with alphaIIbbeta3 and c-Src'
p128
S'T58'
p129
tp130
a(S'E41'
p131
I-1
S'phosphorylation of PTP-1B'
p132
S'T58'
p133
tp134
a(S'E51'
p135
I-1
S'phosphorylation of PTP-1B'
p136
S'T59'
p137
tp138
a(S'E40'
p139
g7
(g11
S't\x00\x00\x00\x00\x00\x00\x00'
p140
tp141
Rp142
S'bound soluble fibrinogen normally in response to either ADP'
p143
S'T50'
p144
tp145
a(S'E27'
p146
g7
(g11
S'x\x00\x00\x00\x00\x00\x00\x00'
p147
tp148
Rp149
S'fibrinogen binding to alphaIIbbeta3'
p150
S'T17'
p151
tp152
a(S'E10'
p153
g7
(g11
S'\xa0\x00\x00\x00\x00\x00\x00\x00'
p154
tp155
Rp156
S'c-Src, the most abundant Src family member that is expressed in platelets, can bind directly to the integrin beta3 subunit'
p157
S'T18'
p158
tp159
a(S'E29'
p160
g7
(g11
S'\xa0\x00\x00\x00\x00\x00\x00\x00'
p161
tp162
Rp163
S'fibrinogen binding to alphaIIbbeta3'
p164
S'T18'
p165
tp166
a(S'E48'
p167
g7
(g11
S'\xa7\x00\x00\x00\x00\x00\x00\x00'
p168
tp169
Rp170
S'dephosphorylating c-Src'
p171
S'T20'
p172
tp173
a(S'E45'
p174
I175
S'transautophosphorylation of integrin-associated c-Src'
p175
S'T22'
p176
tp177
ag177
a(S'E50'
p178
g7
(g11
S'\xb0\x00\x00\x00\x00\x00\x00\x00'
p179
tp180
Rp181
S'phosphorylate a protein that is capable of recruiting PTP-1B'
p182
S'T22'
p183
tp184
a(g178
g7
(g11
S'\xb0\x00\x00\x00\x00\x00\x00\x00'
p185
tp186
Rp187
S'phosphorylate a protein that is capable of recruiting PTP-1B'
p188
S'T61'
p189
tp190
a(S'E19'
p191
g7
(g11
S'\xb8\x00\x00\x00\x00\x00\x00\x00'
p192
tp193
Rp194
S'phosphorylation of Dok-2'
p195
S'T62'
p196
tp197
asS'PMC1702562'
p198
(lp199
(S'E51'
p200
I38
S'phosphorylates KSRP'
p201
S'T104'
p202
tp203
a(S'E20'
p204
I-1
S'HuR was not phosphorylated'
p205
S'T107'
p206
tp207
a(S'E37'
p208
g7
(g11
S'T\x00\x00\x00\x00\x00\x00\x00'
p209
tp210
Rp211
S'phosphorylate KSRP deletion mutants'
p212
S'T107'
p213
tp214
a(S'E11'
p215
g7
(g11
S'U\x00\x00\x00\x00\x00\x00\x00'
p216
tp217
Rp218
S'KSRP fragments including KH1, where S193 is located, were phosphorylated'
p219
S'T107'
p220
tp221
a(S'E33'
p222
g7
(g11
S'W\x00\x00\x00\x00\x00\x00\x00'
p223
tp224
Rp225
S'recombinant human KSRP was phosphorylated'
p226
S'T107'
p227
tp228
a(S'E16'
p229
I94
S'KSRP was phosphorylated'
p230
S'T106'
p231
tp232
a(S'E41'
p233
g7
(g11
S'j\x00\x00\x00\x00\x00\x00\x00'
p234
tp235
Rp236
S'KSRP phosphorylation'
p237
S'T110'
p238
tp239
a(S'E49'
p240
I-1
S'phosphorylated KSRP'
p241
S'T110'
p242
tp243
a(S'E2'
p244
I-1
S'AKT2-phosphorylated'
p245
S'T110'
p246
tp247
a(S'E1'
p248
I-1
S'phosphorylated KSRP'
p249
S'T110'
p250
tp251
a(S'E35'
p252
g7
(g11
S'q\x00\x00\x00\x00\x00\x00\x00'
p253
tp254
Rp255
S'phosphorylation by AKT favors the interaction of KSRP'
p256
S'T108'
p257
tp258
a(S'E53'
p259
I-1
S'AKT-phosphorylated'
p260
S'T111'
p261
tp262
a(S'E21'
p263
I-1
S'phosphorylated KSRP and 14-3-3'
p264
S'T111'
p265
tp266
a(S'E39'
p267
I-1
S'AKT2-phosphorylated'
p268
S'T112'
p269
tp270
a(S'E22'
p271
I-1
S'phosphorylated KSRP'
p272
S'T112'
p273
tp274
a(S'E44'
p275
g7
(g11
S'{\x00\x00\x00\x00\x00\x00\x00'
p276
tp277
Rp278
S'phosphorylated KH1-4 protein'
p279
S'T112'
p280
tp281
a(S'E47'
p282
I-1
S'AKT-phosphorylated'
p283
S'T113'
p284
tp285
a(S'E46'
p286
I-1
S'phosphorylated KSRP'
p287
S'T113'
p288
tp289
a(S'E28'
p290
g7
(g11
S'\x7f\x00\x00\x00\x00\x00\x00\x00'
p291
tp292
Rp293
S'phosphorylation by AKT2 did not affect the beta-catenin mRNA binding activity of KSRP'
p294
S'T113'
p295
tp296
a(S'E29'
p297
g7
(g11
S'\x81\x00\x00\x00\x00\x00\x00\x00'
p298
tp299
Rp300
S'GST-KH1-4 phosphorylated'
p301
S'T113'
p302
tp303
a(S'E25'
p304
g7
(g11
S'\x83\x00\x00\x00\x00\x00\x00\x00'
p305
tp306
Rp307
S'interaction of KSRP with PARN'
p308
S'T114'
p309
tp310
a(S'E15'
p311
g7
(g11
S'\x85\x00\x00\x00\x00\x00\x00\x00'
p312
tp313
Rp314
S'phosphorylation by AKT and interaction with 14-3-3 affect the ability of KSRP'
p315
S'T114'
p316
tp317
a(S'E17'
p318
I-1
S'KSRP, a major regulator of beta-catenin mRNA decay, is phosphorylated'
p319
S'T115'
p320
tp321
a(S'E10'
p322
g7
(g11
S'\xa7\x00\x00\x00\x00\x00\x00\x00'
p323
tp324
Rp325
S'phosphorylation status of HuR'
p326
S'T115'
p327
tp328
a(S'E23'
p329
I-1
S'KSRP phosphorylation'
p330
S'T115'
p331
tp332
a(S'E45'
p333
g7
(g11
S'\xae\x00\x00\x00\x00\x00\x00\x00'
p334
tp335
Rp336
S'KSRP phosphorylation'
p337
S'T116'
p338
tp339
a(S'E19'
p340
g7
(g11
S'\xae\x00\x00\x00\x00\x00\x00\x00'
p341
tp342
Rp343
S'KSRP phosphorylation by PI3K-AKT creates a functional 14-3-3 binding'
p344
S'T116'
p345
tp346
a(S'E7'
p347
I-1
S'Phosphorylation by AKT, followed by interaction with 14-3-3, impairs the ability of KSRP'
p348
S'T116'
p349
tp350
a(S'E42'
p351
g7
(g11
S'\xb2\x00\x00\x00\x00\x00\x00\x00'
p352
tp353
Rp354
S'KSRP interaction with the deadenylase PARN'
p355
S'T116'
p356
tp357
a(S'E27'
p358
I-1
S'KSRP Is Phosphorylated'
p359
S'T109'
p360
tp361
a(S'E12'
p362
I-1
S'Phosphorylated by AKT in Serine 193  (A) Immunoprecipitation of beta-catenin RNA-containing ribonucleoprotein complexes'
p363
S'T109'
p364
tp365
a(S'E36'
p366
g7
(g11
S'H\x01\x00\x00\x00\x00\x00\x00'
p367
tp368
Rp369
S'AKT phosphorylation'
p370
S'T109'
p371
tp372
a(S'E43'
p373
I-1
S'phosphorylated AKT2'
p374
S'T109'
p375
tp376
a(S'E38'
p377
g7
(g11
S'M\x01\x00\x00\x00\x00\x00\x00'
p378
tp379
Rp380
S'phosphorylation reactions with anti-FLAG antibody'
p381
S'T109'
p382
tp383
a(S'E52'
p384
I-1
S'phosphorylated AKT2'
p385
S'T109'
p386
tp387
a(S'E18'
p388
I-1
S'KSRP Phosphorylation'
p389
S'T117'
p390
tp391
a(S'E8'
p392
I-1
S'phosphorylated KH1-4 (30 nM, lanes 9-12), or AKT2'
p393
S'T118'
p394
tp395
a(S'E34'
p396
I-1
S'AKT2-phosphorylated'
p397
S'T118'
p398
tp399
a(S'E48'
p400
g7
(g11
S'm\x01\x00\x00\x00\x00\x00\x00'
p401
tp402
Rp403
S'AKT2 phosphorylation'
p404
S'T119'
p405
tp406
asS'PMC2156131'
p407
(lp408
(S'E12'
p409
g7
(g11
S'\x06\x00\x00\x00\x00\x00\x00\x00'
p410
tp411
Rp412
S'MAP kinase, tyrosine phosphorylation'
p413
S'T72'
p414
tp415
a(S'E30'
p416
g7
(g11
S'\x0f\x00\x00\x00\x00\x00\x00\x00'
p417
tp418
Rp419
S'EGF receptor tyrosine phosphorylation'
p420
S'T72'
p421
tp422
a(S'E11'
p423
I70
S'tenascin C, a collagen-binding glycoprotein that also binds'
p424
S'T73'
p425
tp426
a(S'E13'
p427
g7
(g11
S'8\x00\x00\x00\x00\x00\x00\x00'
p428
tp429
Rp430
S'phosphorylation of the EGF receptor'
p431
S'T75'
p432
tp433
a(g427
g7
(g11
S'8\x00\x00\x00\x00\x00\x00\x00'
p434
tp435
Rp436
S'phosphorylation of the EGF receptor'
p437
S'T74'
p438
tp439
a(S'E7'
p440
g7
(g11
S'L\x00\x00\x00\x00\x00\x00\x00'
p441
tp442
Rp443
S'EGF receptor tyrosine phosphorylation'
p444
S'T74'
p445
tp446
a(S'E18'
p447
g7
(g11
S'R\x00\x00\x00\x00\x00\x00\x00'
p448
tp449
Rp450
S'phosphorylation of the EGF receptor'
p451
S'T76'
p452
tp453
a(S'E8'
p454
g7
(g11
S'S\x00\x00\x00\x00\x00\x00\x00'
p455
tp456
Rp457
S'interact with integrin or other cell adhesion receptors'
p458
S'T76'
p459
tp460
a(S'E35'
p461
I90
S'EGF receptor tyrosine phosphorylation'
p462
S'T77'
p463
tp464
asS'PMC2195799'
p465
(lp466
(S'E66'
p467
g7
(g11
S'\x07\x00\x00\x00\x00\x00\x00\x00'
p468
tp469
Rp470
S'Vav phosphorylation'
p471
S'T150'
p472
tp473
a(S'E39'
p474
g7
(g11
S'\x15\x00\x00\x00\x00\x00\x00\x00'
p475
tp476
Rp477
S'interaction between FcinRI and Vav'
p478
S'T150'
p479
tp480
a(S'E43'
p481
g7
(g11
S'\x16\x00\x00\x00\x00\x00\x00\x00'
p482
tp483
Rp484
S'phosphorylation of Vav'
p485
S'T150'
p486
tp487
a(S'E3'
p488
I-1
S'FcinRI engagement. Phosphorylation'
p489
S'T150'
p490
tp491
a(S'E58'
p492
g7
(g11
S' \x00\x00\x00\x00\x00\x00\x00'
p493
tp494
Rp495
S'Vav phosphorylation'
p496
S'T150'
p497
tp498
a(S'E35'
p499
g7
(g11
S'"\x00\x00\x00\x00\x00\x00\x00'
p500
tp501
Rp502
S'phosphorylation and recruitment of Vav'
p503
S'T151'
p504
tp505
a(S'E77'
p506
I-1
S'A rabbit'
p507
S'T172'
p508
tp509
a(S'E45'
p510
I-1
S'phosphorylated by and to interact with Syk 17 29 30'
p511
S'T158'
p512
tp513
a(S'E7'
p514
I-1
S'phosphorylation of the CH, DH, or PH domain'
p515
S'T152'
p516
tp517
a(S'E19'
p518
I-1
S'Vav phosphorylation'
p519
S'T152'
p520
tp521
a(S'E26'
p522
g7
(g11
S'r\x00\x00\x00\x00\x00\x00\x00'
p523
tp524
Rp525
S'Vav phosphorylation'
p526
S'T152'
p527
tp528
a(S'E29'
p529
I-1
S'Vav phosphorylation'
p530
S'T152'
p531
tp532
a(S'E47'
p533
I-1
S'Vav phosphorylation'
p534
S'T152'
p535
tp536
a(S'E54'
p537
g7
(g11
S'\x85\x00\x00\x00\x00\x00\x00\x00'
p538
tp539
Rp540
S'phosphorylation of Vav'
p541
S'T154'
p542
tp543
a(S'E48'
p544
g7
(g11
S'\x90\x00\x00\x00\x00\x00\x00\x00'
p545
tp546
Rp547
S'interaction of Syk and Vav'
p548
S'T153'
p549
tp550
a(S'E34'
p551
g7
(g11
S'\x99\x00\x00\x00\x00\x00\x00\x00'
p552
tp553
Rp554
S'Vav-C (R694K) was only weakly phosphorylated'
p555
S'T154'
p556
tp557
a(S'E44'
p558
g7
(g11
S'\x9c\x00\x00\x00\x00\x00\x00\x00'
p559
tp560
Rp561
S'Syk phosphorylation'
p562
S'T154'
p563
tp564
a(S'E32'
p565
g7
(g11
S'\xa2\x00\x00\x00\x00\x00\x00\x00'
p566
tp567
Rp568
S'Vav and SLP-76 interaction'
p569
S'T155'
p570
tp571
a(S'E22'
p572
g7
(g11
S'\xa4\x00\x00\x00\x00\x00\x00\x00'
p573
tp574
Rp575
S'phosphorylation of Syk, SLP-76, or LAT'
p576
S'T155'
p577
tp578
a(S'E75'
p579
I165
S'Vav phosphorylation'
p580
S'T155'
p581
tp582
a(S'E20'
p583
I-1
S'phosphorylated FcinRI beta chain and the GEM-localized Lyn 6'
p584
S'T155'
p585
tp586
a(S'E37'
p587
I-1
S'phosphorylated Vav and FcinRI into LAT- and Rac1'
p588
S'T155'
p589
tp590
a(S'E13'
p591
g7
(g11
S'\xb7\x00\x00\x00\x00\x00\x00\x00'
p592
tp593
Rp594
S'phosphorylation of endogenous Vav'
p595
S'T155'
p596
tp597
a(S'E16'
p598
g7
(g11
S'\xba\x00\x00\x00\x00\x00\x00\x00'
p599
tp600
Rp601
S'phosphorylation of SLP-76 and LAT'
p602
S'T155'
p603
tp604
a(S'E18'
p605
I-1
S'phosphorylation of Vav and/or formation of a Vav'
p606
S'T155'
p607
tp608
a(S'E67'
p609
g7
(g11
S'\xc8\x00\x00\x00\x00\x00\x00\x00'
p610
tp611
Rp612
S'phosphorylation of receptor Syk'
p613
S'T156'
p614
tp615
a(S'E51'
p616
g7
(g11
S'\xc8\x00\x00\x00\x00\x00\x00\x00'
p617
tp618
Rp619
S'phosphorylation of receptor Syk and Vav'
p620
S'T156'
p621
tp622
a(g616
g7
(g11
S'\xc8\x00\x00\x00\x00\x00\x00\x00'
p623
tp624
Rp625
S'phosphorylation of receptor Syk and Vav'
p626
S'T155'
p627
tp628
a(S'E71'
p629
g7
(g11
S'\xd6\x00\x00\x00\x00\x00\x00\x00'
p630
tp631
Rp632
S'phosphorylation of the FcinRI'
p633
S'T155'
p634
tp635
a(S'E52'
p636
g7
(g11
S'\xdf\x00\x00\x00\x00\x00\x00\x00'
p637
tp638
Rp639
S'Vav phosphorylation'
p640
S'T157'
p641
tp642
a(S'E42'
p643
g7
(g11
S'\xf0\x00\x00\x00\x00\x00\x00\x00'
p644
tp645
Rp646
S'phosphorylation of the calcium response modulator, phospholipase Cgamma1'
p647
S'T168'
p648
tp649
a(S'E76'
p650
I-1
S'Vav phosphorylation'
p651
S'T169'
p652
tp653
a(S'E74'
p654
g7
(g11
S'\x06\x01\x00\x00\x00\x00\x00\x00'
p655
tp656
Rp657
S'phosphorylation of Vav'
p658
S'T169'
p659
tp660
a(S'E5'
p661
I-1
S'Vav phosphorylation'
p662
S'T170'
p663
tp664
a(S'E64'
p665
g7
(g11
S'"\x01\x00\x00\x00\x00\x00\x00'
p666
tp667
Rp668
S'Vav phosphorylation'
p669
S'T167'
p670
tp671
a(S'E10'
p672
I-1
S'phosphorylation of Syk, SLP-76, and LAT'
p673
S'T167'
p674
tp675
a(S'E53'
p676
g7
(g11
S'*\x01\x00\x00\x00\x00\x00\x00'
p677
tp678
Rp679
S'phosphorylation of Vav'
p680
S'T167'
p681
tp682
a(S'E4'
p683
I-1
S'SLP-76 phosphorylation'
p684
S'T166'
p685
tp686
a(S'E33'
p687
I-1
S'phosphorylation of LAT'
p688
S'T165'
p689
tp690
a(S'E14'
p691
I-1
S'FcinRI engagement results in Lyn phosphorylation'
p692
S'T164'
p693
tp694
a(S'E55'
p695
g7
(g11
S'M\x01\x00\x00\x00\x00\x00\x00'
p696
tp697
Rp698
S'phosphorylated Vav'
p699
S'T164'
p700
tp701
a(S'E57'
p702
I-1
S'Phosphorylated Vav'
p703
S'T164'
p704
tp705
asS'PMC2118421'
p706
(lp707
(S'E53'
p708
g7
(g11
S'\x11\x00\x00\x00\x00\x00\x00\x00'
p709
tp710
Rp711
S'RasGRP1 expression'
p712
S'T175'
p713
tp714
a(S'E60'
p715
g7
(g11
S'\x19\x00\x00\x00\x00\x00\x00\x00'
p716
tp717
Rp718
S'Expression of RasGRP1 and RasGRP4'
p719
S'T177'
p720
tp721
a(S'E91'
p722
g7
(g11
S'P\x00\x00\x00\x00\x00\x00\x00'
p723
tp724
Rp725
S'phosphorylation of LAT'
p726
S'T180'
p727
tp728
a(S'E52'
p729
g7
(g11
S'Q\x00\x00\x00\x00\x00\x00\x00'
p730
tp731
Rp732
S'LAT phosphorylation'
p733
S'T181'
p734
tp735
a(S'E64'
p736
I82
S'Tyrosine phosphorylation of PLCgamma1'
p737
S'T182'
p738
tp739
a(S'E63'
p740
g7
(g11
S'R\x00\x00\x00\x00\x00\x00\x00'
p741
tp742
Rp743
S'phosphorylation of PLCgamma1 and PLCgamma2'
p744
S'T182'
p745
tp746
a(S'E65'
p747
I82
S'phosphorylation of PLCgamma1'
p748
S'T182'
p749
tp750
a(S'E76'
p751
g7
(g11
S'S\x00\x00\x00\x00\x00\x00\x00'
p752
tp753
Rp754
S'phosphorylation of PLCgamma1 and PLCgamma2'
p755
S'T183'
p756
tp757
a(S'E100'
p758
g7
(g11
S'S\x00\x00\x00\x00\x00\x00\x00'
p759
tp760
Rp761
S'phosphorylation of PLCgamma1'
p762
S'T183'
p763
tp764
a(S'E42'
p765
g7
(g11
S'V\x00\x00\x00\x00\x00\x00\x00'
p766
tp767
Rp768
S'Tyrosine phosphorylation of proteins after FcepsilonRI'
p769
S'T186'
p770
tp771
a(S'E67'
p772
I90
S'phosphorylation of PLCgamma1 and PLCgamma2'
p773
S'T178'
p774
tp775
a(S'E93'
p776
g7
(g11
S'Z\x00\x00\x00\x00\x00\x00\x00'
p777
tp778
Rp779
S'phosphorylation of PLCgamma1'
p780
S'T178'
p781
tp782
a(S'E113'
p783
g7
(g11
S'u\x00\x00\x00\x00\x00\x00\x00'
p784
tp785
Rp786
S'Gab2 phosphorylation'
p787
S'T185'
p788
tp789
a(S'E102'
p790
I118
S'Gab2 was phosphorylated'
p791
S'T185'
p792
tp793
a(S'E66'
p794
I120
S'SHIP expression and phosphorylation'
p795
S'T179'
p796
tp797
a(S'E110'
p798
g7
(g11
S'x\x00\x00\x00\x00\x00\x00\x00'
p799
tp800
Rp801
S'SHIP expression'
p802
S'T179'
p803
tp804
a(S'E109'
p805
g7
(g11
S'\x80\x00\x00\x00\x00\x00\x00\x00'
p806
tp807
Rp808
S'Gab2 phosphorylation'
p809
S'T179'
p810
tp811
a(S'E38'
p812
g7
(g11
S'\x87\x00\x00\x00\x00\x00\x00\x00'
p813
tp814
Rp815
S'phosphorylation of molecules in the PI3K'
p816
S'T187'
p817
tp818
a(S'E41'
p819
I136
S'Akt is recruited to the cell membrane by PIP3 and phosphorylated'
p820
S'T187'
p821
tp822
a(S'E115'
p823
g7
(g11
S'\x89\x00\x00\x00\x00\x00\x00\x00'
p824
tp825
Rp826
S'phosphorylates GSK3beta'
p827
S'T187'
p828
tp829
a(S'E77'
p830
I-1
S'FcepsilonRI-mediated'
p831
S'T187'
p832
tp833
a(S'E2'
p834
g7
(g11
S'\x8c\x00\x00\x00\x00\x00\x00\x00'
p835
tp836
Rp837
S'Akt phosphorylation'
p838
S'T187'
p839
tp840
a(S'E34'
p841
g7
(g11
S'\x8d\x00\x00\x00\x00\x00\x00\x00'
p842
tp843
Rp844
S'phosphorylation of GSK3beta (Ser9'
p845
S'T188'
p846
tp847
a(S'E84'
p848
g7
(g11
S'\x90\x00\x00\x00\x00\x00\x00\x00'
p849
tp850
Rp851
S'phosphorylation of PDK1'
p852
S'T188'
p853
tp854
a(S'E94'
p855
g7
(g11
S'\x91\x00\x00\x00\x00\x00\x00\x00'
p856
tp857
Rp858
S'phosphorylation of PKCdelta'
p859
S'T188'
p860
tp861
a(S'E78'
p862
I150
S'GTP-bound Ras'
p863
S'T188'
p864
tp865
a(S'E92'
p866
I151
S'GTP-bound N-Ras'
p867
S'T188'
p868
tp869
a(S'E47'
p870
I151
S'GTP-bound K-Ras'
p871
S'T188'
p872
tp873
a(S'E46'
p874
I151
S'GTP-bound K-Ras'
p875
S'T188'
p876
tp877
a(S'E114'
p878
I152
S'GTP-bound H-Ras'
p879
S'T188'
p880
tp881
a(S'E33'
p882
g7
(g11
S'\xa6\x00\x00\x00\x00\x00\x00\x00'
p883
tp884
Rp885
S'phosphorylation of Akt'
p886
S'T189'
p887
tp888
a(S'E101'
p889
g7
(g11
S'\xa7\x00\x00\x00\x00\x00\x00\x00'
p890
tp891
Rp892
S'Akt phosphorylation'
p893
S'T189'
p894
tp895
a(S'E104'
p896
g7
(g11
S'\xb5\x00\x00\x00\x00\x00\x00\x00'
p897
tp898
Rp899
S'CD63 surface expression'
p900
S'T190'
p901
tp902
a(S'E48'
p903
g7
(g11
S'\xb6\x00\x00\x00\x00\x00\x00\x00'
p904
tp905
Rp906
S'CD63 surface expression'
p907
S'T190'
p908
tp909
a(S'E1'
p910
g7
(g11
S'\xbc\x00\x00\x00\x00\x00\x00\x00'
p911
tp912
Rp913
S'CD63 expression'
p914
S'T191'
p915
tp916
a(S'E85'
p917
I207
S'GTP-bound Rac1 and RhoA'
p918
S'T192'
p919
tp920
a(S'E86'
p921
I207
S'GTP-bound Rac1'
p922
S'T192'
p923
tp924
a(S'E87'
p925
I207
S'bound Rac1 and RhoA'
p926
S'T192'
p927
tp928
a(S'E4'
p929
g7
(g11
S'\xd4\x00\x00\x00\x00\x00\x00\x00'
p930
tp931
Rp932
S'tyrosine phosphorylation of proteins, phosphorylation of LAT'
p933
S'T193'
p934
tp935
a(S'E3'
p936
g7
(g11
S'\xd4\x00\x00\x00\x00\x00\x00\x00'
p937
tp938
Rp939
S'phosphorylation'
p940
S'T193'
p941
tp942
a(S'E6'
p943
g7
(g11
S'\xd4\x00\x00\x00\x00\x00\x00\x00'
p944
tp945
Rp946
S'phosphorylation of proteins, phosphorylation of LAT and PLCgamma1'
p947
S'T193'
p948
tp949
a(S'E5'
p950
g7
(g11
S'\xd4\x00\x00\x00\x00\x00\x00\x00'
p951
tp952
Rp953
S'phosphorylation of proteins, phosphorylation of LAT'
p954
S'T193'
p955
tp956
a(S'E40'
p957
g7
(g11
S'\xd4\x00\x00\x00\x00\x00\x00\x00'
p958
tp959
Rp960
S'phosphorylation of LAT and PLCgamma1'
p961
S'T193'
p962
tp963
a(S'E116'
p964
g7
(g11
S'\xd6\x00\x00\x00\x00\x00\x00\x00'
p965
tp966
Rp967
S'PLCgamma phosphorylation'
p968
S'T194'
p969
tp970
a(S'E107'
p971
g7
(g11
S'\xd6\x00\x00\x00\x00\x00\x00\x00'
p972
tp973
Rp974
S'phosphorylation and calcium'
p975
S'T194'
p976
tp977
a(S'E49'
p978
I-1
S'recruitment and activation of PLCgamma1 (35), as well as Tec'
p979
S'T194'
p980
tp981
a(S'E112'
p982
g7
(g11
S'\xdc\x00\x00\x00\x00\x00\x00\x00'
p983
tp984
Rp985
S'PLCgamma phosphorylation'
p986
S'T195'
p987
tp988
a(S'E99'
p989
g7
(g11
S'\xdc\x00\x00\x00\x00\x00\x00\x00'
p990
tp991
Rp992
S'phosphorylation and calcium'
p993
S'T195'
p994
tp995
a(S'E111'
p996
g7
(g11
S'\xe7\x00\x00\x00\x00\x00\x00\x00'
p997
tp998
Rp999
S'Shc is phosphorylated'
p1000
S'T196'
p1001
tp1002
a(S'E35'
p1003
I-1
S'Recruitment of the p85 subunit of PI3K by Gab2'
p1004
S'T197'
p1005
tp1006
a(S'E36'
p1007
I-1
S'Recruitment of the p85 subunit of PI3K by Gab2'
p1008
S'T197'
p1009
tp1010
a(S'E37'
p1011
I-1
S'Recruitment of the p85 subunit of PI3K'
p1012
S'T197'
p1013
tp1014
a(S'E68'
p1015
g7
(g11
S'\xed\x00\x00\x00\x00\x00\x00\x00'
p1016
tp1017
Rp1018
S'recruitment of p85 by Gab2'
p1019
S'T197'
p1020
tp1021
a(S'E43'
p1022
I-1
S'GTP-bound Ras'
p1023
S'T197'
p1024
tp1025
a(S'E54'
p1026
g7
(g11
S'\xf0\x00\x00\x00\x00\x00\x00\x00'
p1027
tp1028
Rp1029
S'interact with the p110 subunit of PI3K'
p1030
S'T197'
p1031
tp1032
a(S'E95'
p1033
g7
(g11
S'\xf2\x00\x00\x00\x00\x00\x00\x00'
p1034
tp1035
Rp1036
S'Gab2 phosphorylation'
p1037
S'T197'
p1038
tp1039
a(S'E58'
p1040
g7
(g11
S'\xf2\x00\x00\x00\x00\x00\x00\x00'
p1041
tp1042
Rp1043
S'phosphorylation and the recruitment of p85'
p1044
S'T197'
p1045
tp1046
a(S'E50'
p1047
g7
(g11
S'\xf2\x00\x00\x00\x00\x00\x00\x00'
p1048
tp1049
Rp1050
S'interaction with p110 in FcepsilonRI'
p1051
S'T197'
p1052
tp1053
a(S'E69'
p1054
I-1
S'N-Ras interacts with the catalytic p110 subunit of PI3K, which binds phosphorylated Gab2, and activates the PI3K'
p1055
S'T198'
p1056
tp1057
a(S'E70'
p1058
I-1
S'N-Ras interacts with the catalytic p110 subunit of PI3K, which binds phosphorylated Gab2'
p1059
S'T198'
p1060
tp1061
a(S'E90'
p1062
I-1
S'N-Ras interacts with the catalytic p110 subunit of PI3K'
p1063
S'T198'
p1064
tp1065
a(S'E71'
p1066
g7
(g11
S'\xfa\x00\x00\x00\x00\x00\x00\x00'
p1067
tp1068
Rp1069
S'interacts with the catalytic p110 subunit of PI3K, which binds phosphorylated Gab2, and activates the PI3K'
p1070
S'T198'
p1071
tp1072
a(S'E72'
p1073
g7
(g11
S'\xfa\x00\x00\x00\x00\x00\x00\x00'
p1074
tp1075
Rp1076
S'interacts with the catalytic p110 subunit of PI3K, which binds phosphorylated Gab2'
p1077
S'T198'
p1078
tp1079
a(S'E57'
p1080
g7
(g11
S'\xfe\x00\x00\x00\x00\x00\x00\x00'
p1081
tp1082
Rp1083
S'IL-3 receptor and c-Kit bind to the Shc-Grb2-Sos complex directly to activate the Ras-MAPK pathway and to p85'
p1084
S'T198'
p1085
tp1086
a(S'E56'
p1087
g7
(g11
S'\xfe\x00\x00\x00\x00\x00\x00\x00'
p1088
tp1089
Rp1090
S'IL-3 receptor and c-Kit bind to the Shc-Grb2-Sos complex directly to activate the Ras-MAPK pathway and to p85'
p1091
S'T198'
p1092
tp1093
a(S'E83'
p1094
g7
(g11
S'\xfe\x00\x00\x00\x00\x00\x00\x00'
p1095
tp1096
Rp1097
S'IL-3 receptor and c-Kit bind'
p1098
S'T198'
p1099
tp1100
a(S'E82'
p1101
g7
(g11
S'\xfe\x00\x00\x00\x00\x00\x00\x00'
p1102
tp1103
Rp1104
S'IL-3 receptor and c-Kit bind'
p1105
S'T198'
p1106
tp1107
a(S'E81'
p1108
g7
(g11
S'\xfe\x00\x00\x00\x00\x00\x00\x00'
p1109
tp1110
Rp1111
S'IL-3 receptor and c-Kit bind'
p1112
S'T198'
p1113
tp1114
a(S'E55'
p1115
g7
(g11
S'\xfe\x00\x00\x00\x00\x00\x00\x00'
p1116
tp1117
Rp1118
S'c-Kit bind to the Shc-Grb2-Sos complex directly to activate the Ras-MAPK pathway and to p85'
p1119
S'T198'
p1120
tp1121
a(S'E98'
p1122
g7
(g11
S'\x0e\x01\x00\x00\x00\x00\x00\x00'
p1123
tp1124
Rp1125
S'LAT phosphorylation'
p1126
S'T199'
p1127
tp1128
a(S'E97'
p1129
g7
(g11
S'\x0e\x01\x00\x00\x00\x00\x00\x00'
p1130
tp1131
Rp1132
S'phosphorylation and PLCgamma'
p1133
S'T199'
p1134
tp1135
a(S'E13'
p1136
I-1
S'bound pan-Ras, H-Ras, K-Ras, N-Ras, Rac1, and RhoA'
p1137
S'T200'
p1138
tp1139
a(S'E14'
p1140
I-1
S'bound pan-Ras, H-Ras, K-Ras, N-Ras, Rac1, and RhoA'
p1141
S'T200'
p1142
tp1143
a(S'E16'
p1144
I-1
S'bound pan-Ras, H-Ras, K-Ras, N-Ras, Rac1, and RhoA'
p1145
S'T200'
p1146
tp1147
a(S'E15'
p1148
I-1
S'bound pan-Ras, H-Ras, K-Ras, N-Ras, Rac1, and RhoA'
p1149
S'T200'
p1150
tp1151
a(S'E19'
p1152
I-1
S'bound pan-Ras, H-Ras, K-Ras, N-Ras, Rac1'
p1153
S'T200'
p1154
tp1155
a(S'E17'
p1156
I-1
S'bound pan-Ras, H-Ras, K-Ras, N-Ras, Rac1, and RhoA'
p1157
S'T200'
p1158
tp1159
asS'PMC2168101'
p1160
(lp1161
(S'E5'
p1162
g7
(g11
S'\x02\x00\x00\x00\x00\x00\x00\x00'
p1163
tp1164
Rp1165
S'STEP were phosphorylated'
p1166
S'T97'
p1167
tp1168
a(S'E30'
p1169
g7
(g11
S'\x04\x00\x00\x00\x00\x00\x00\x00'
p1170
tp1171
Rp1172
S'phosphorylation of Ser231, PTP-SL'
p1173
S'T97'
p1174
tp1175
a(S'E24'
p1176
g7
(g11
S'"\x00\x00\x00\x00\x00\x00\x00'
p1177
tp1178
Rp1179
S'Phosphorylates PTP-SL'
p1180
S'T98'
p1181
tp1182
a(S'E25'
p1183
I34
S'Phosphorylates PTP-SL and STEP  PTP-SL and STEP tyrosine'
p1184
S'T98'
p1185
tp1186
a(S'E23'
p1187
I34
S'Phosphorylates PTP-SL and STEP'
p1188
S'T98'
p1189
tp1190
a(S'E35'
p1191
g7
(g11
S'$\x00\x00\x00\x00\x00\x00\x00'
p1192
tp1193
Rp1194
S'phosphorylation of these two phosphatases by PKA'
p1195
S'T98'
p1196
tp1197
a(S'E41'
p1198
g7
(g11
S'&\x00\x00\x00\x00\x00\x00\x00'
p1199
tp1200
Rp1201
S'phosphorylation of the PTP-SL'
p1202
S'T98'
p1203
tp1204
a(g1198
g7
(g11
S'&\x00\x00\x00\x00\x00\x00\x00'
p1205
tp1206
Rp1207
S'phosphorylation of the PTP-SL'
p1208
S'T98'
p1209
tp1210
a(S'E10'
p1211
g7
(g11
S"'\x00\x00\x00\x00\x00\x00\x00"
p1212
tp1213
Rp1214
S'alanine of the Ser231 residue (S231A mutant), abolished the phosphorylation of PTP-SL'
p1215
S'T98'
p1216
tp1217
a(S'E11'
p1218
g7
(g11
S"'\x00\x00\x00\x00\x00\x00\x00"
p1219
tp1220
Rp1221
S'Ser231 residue (S231A mutant), abolished the phosphorylation of PTP-SL'
p1222
S'T98'
p1223
tp1224
a(S'E17'
p1225
g7
(g11
S"'\x00\x00\x00\x00\x00\x00\x00"
p1226
tp1227
Rp1228
S'S231A mutant), abolished the phosphorylation of PTP-SL'
p1229
S'T98'
p1230
tp1231
a(S'E34'
p1232
I39
S'phosphorylation of PTP-SL'
p1233
S'T98'
p1234
tp1235
a(S'E38'
p1236
g7
(g11
S'(\x00\x00\x00\x00\x00\x00\x00'
p1237
tp1238
Rp1239
S'phosphorylation of PTP-SL'
p1240
S'T98'
p1241
tp1242
a(S'E33'
p1243
I42
S'phosphorylation of wild-type PTP-SL isoforms'
p1244
S'T99'
p1245
tp1246
a(S'E42'
p1247
g7
(g11
S',\x00\x00\x00\x00\x00\x00\x00'
p1248
tp1249
Rp1250
S'hyperphosphorylation of wild-type PTP-SL'
p1251
S'T99'
p1252
tp1253
a(S'E13'
p1254
I46
S'Phosphorylation of the KIM of PTP-SL by PKA Inhibits the Association and the Tyrosine'
p1255
S'T100'
p1256
tp1257
a(S'E47'
p1258
I47
S'PTP-SL phosphorylation'
p1259
S'T100'
p1260
tp1261
a(S'E39'
p1262
I48
S'GST-PTP-SL fusion proteins were phosphorylated'
p1263
S'T100'
p1264
tp1265
a(S'E36'
p1266
g7
(g11
S'2\x00\x00\x00\x00\x00\x00\x00'
p1267
tp1268
Rp1269
S'phosphorylation of GST-PTP-SL'
p1270
S'T100'
p1271
tp1272
a(S'E43'
p1273
I51
S'PTP-SL phosphorylation'
p1274
S'T101'
p1275
tp1276
a(S'E28'
p1277
g7
(g11
S'7\x00\x00\x00\x00\x00\x00\x00'
p1278
tp1279
Rp1280
S'phosphorylation of the Ser231 residue of PTP-SL'
p1281
S'T101'
p1282
tp1283
a(S'E29'
p1284
I58
S'phosphorylation of the Ser231 residue of PTP-SL'
p1285
S'T101'
p1286
tp1287
a(S'E6'
p1288
g7
(g11
S'=\x00\x00\x00\x00\x00\x00\x00'
p1289
tp1290
Rp1291
S'phosphorylation of PTP-SL'
p1292
S'T102'
p1293
tp1294
a(S'E18'
p1295
g7
(g11
S'D\x00\x00\x00\x00\x00\x00\x00'
p1296
tp1297
Rp1298
S'phosphorylation of the Ser231 residue of PTP-SL'
p1299
S'T102'
p1300
tp1301
a(S'E1'
p1302
I73
S'phosphorylation of the KIM regulatory residue on the PTP'
p1303
S'T102'
p1304
tp1305
a(S'E40'
p1306
g7
(g11
S'K\x00\x00\x00\x00\x00\x00\x00'
p1307
tp1308
Rp1309
S'expression of PTP-SL'
p1310
S'T104'
p1311
tp1312
a(g1306
g7
(g11
S'K\x00\x00\x00\x00\x00\x00\x00'
p1313
tp1314
Rp1315
S'expression of PTP-SL'
p1316
S'T103'
p1317
tp1318
a(S'E46'
p1319
g7
(g11
S'L\x00\x00\x00\x00\x00\x00\x00'
p1320
tp1321
Rp1322
S'PKA phosphorylation'
p1323
S'T105'
p1324
tp1325
a(S'E8'
p1326
g7
(g11
S'N\x00\x00\x00\x00\x00\x00\x00'
p1327
tp1328
Rp1329
S'phosphorylation of the KIM of HePTP'
p1330
S'T105'
p1331
tp1332
a(S'E3'
p1333
g7
(g11
S'T\x00\x00\x00\x00\x00\x00\x00'
p1334
tp1335
Rp1336
S'PKC phosphorylation'
p1337
S'T105'
p1338
tp1339
a(S'E26'
p1340
g7
(g11
S'T\x00\x00\x00\x00\x00\x00\x00'
p1341
tp1342
Rp1343
S'PTP-SL is phosphorylated'
p1344
S'T105'
p1345
tp1346
a(S'E12'
p1347
g7
(g11
S'U\x00\x00\x00\x00\x00\x00\x00'
p1348
tp1349
Rp1350
S'binding of MAP kinases to the KIM of PTP-SL'
p1351
S'T105'
p1352
tp1353
a(g1347
g7
(g11
S'U\x00\x00\x00\x00\x00\x00\x00'
p1354
tp1355
Rp1356
S'binding of MAP kinases to the KIM of PTP-SL'
p1357
S'T105'
p1358
tp1359
a(S'E31'
p1360
g7
(g11
S'U\x00\x00\x00\x00\x00\x00\x00'
p1361
tp1362
Rp1363
S'phosphorylation of PTP-SL'
p1364
S'T105'
p1365
tp1366
a(S'E20'
p1367
g7
(g11
S'U\x00\x00\x00\x00\x00\x00\x00'
p1368
tp1369
Rp1370
S'phosphorylation of the KIM'
p1371
S'T105'
p1372
tp1373
a(S'E2'
p1374
I86
S'phosphorylation of the Ser231 residue; accordingly, the basal phosphorylation of PTP-SL'
p1375
S'T105'
p1376
tp1377
a(S'E19'
p1378
g7
(g11
S'W\x00\x00\x00\x00\x00\x00\x00'
p1379
tp1380
Rp1381
S'phosphorylation of the Thr253 residue by ERK1'
p1382
S'T105'
p1383
tp1384
a(S'E48'
p1385
g7
(g11
S']\x00\x00\x00\x00\x00\x00\x00'
p1386
tp1387
Rp1388
S'phosphorylation of MAP'
p1389
S'T106'
p1390
tp1391
a(S'E21'
p1392
I101
S'Phosphorylation of PTP-SL and STEP'
p1393
S'T106'
p1394
tp1395
a(S'E22'
p1396
I101
S'Phosphorylation of PTP-SL'
p1397
S'T106'
p1398
tp1399
a(S'E45'
p1400
g7
(g11
S'k\x00\x00\x00\x00\x00\x00\x00'
p1401
tp1402
Rp1403
S'PTP-SL phosphorylation'
p1404
S'T106'
p1405
tp1406
a(g1400
g7
(g11
S'k\x00\x00\x00\x00\x00\x00\x00'
p1407
tp1408
Rp1409
S'PTP-SL phosphorylation'
p1410
S'T107'
p1411
tp1412
a(S'E27'
p1413
g7
(g11
S'\x92\x00\x00\x00\x00\x00\x00\x00'
p1414
tp1415
Rp1416
S'MAP kinase tyrosine phosphorylation'
p1417
S'T108'
p1418
tp1419
asS'PMC2148195'
p1420
(lp1421
(S'E17'
p1422
g7
(g11
S'\x08\x00\x00\x00\x00\x00\x00\x00'
p1423
tp1424
Rp1425
S'binding of v-src to Cx43'
p1426
S'T91'
p1427
tp1428
a(S'E47'
p1429
I94
S'v-src expression'
p1430
S'T93'
p1431
tp1432
a(S'E42'
p1433
g7
(g11
S'c\x00\x00\x00\x00\x00\x00\x00'
p1434
tp1435
Rp1436
S'expression of the Cx43'
p1437
S'T92'
p1438
tp1439
a(S'E15'
p1440
I111
S'Phosphorylation of Cx43'
p1441
S'T94'
p1442
tp1443
ag1443
a(S'E37'
p1444
g7
(g11
S'q\x00\x00\x00\x00\x00\x00\x00'
p1445
tp1446
Rp1447
S'v-src phosphorylation (Tyr247'
p1448
S'T94'
p1449
tp1450
a(S'E38'
p1451
g7
(g11
S'q\x00\x00\x00\x00\x00\x00\x00'
p1452
tp1453
Rp1454
S'v-src phosphorylation'
p1455
S'T94'
p1456
tp1457
a(g1451
g7
(g11
S'q\x00\x00\x00\x00\x00\x00\x00'
p1458
tp1459
Rp1460
S'v-src phosphorylation'
p1461
S'T95'
p1462
tp1463
a(g1444
g7
(g11
S'q\x00\x00\x00\x00\x00\x00\x00'
p1464
tp1465
Rp1466
S'v-src phosphorylation (Tyr247'
p1467
S'T95'
p1468
tp1469
a(S'E36'
p1470
I116
S'v-src phosphorylation on Cx43 (i.e., Y265'
p1471
S'T94'
p1472
tp1473
a(S'E39'
p1474
g7
(g11
S't\x00\x00\x00\x00\x00\x00\x00'
p1475
tp1476
Rp1477
S'v-src phosphorylation'
p1478
S'T94'
p1479
tp1480
a(S'E27'
p1481
g7
(g11
S'v\x00\x00\x00\x00\x00\x00\x00'
p1482
tp1483
Rp1484
S'phosphorylation of Cx43'
p1485
S'T94'
p1486
tp1487
a(S'E13'
p1488
I131
S'v-src or MAP kinase phosphorylation'
p1489
S'T96'
p1490
tp1491
a(S'E33'
p1492
I131
S'MAP kinase phosphorylation'
p1493
S'T96'
p1494
tp1495
a(S'E34'
p1496
g7
(g11
S'\x86\x00\x00\x00\x00\x00\x00\x00'
p1497
tp1498
Rp1499
S'binding of v-src to Cx43'
p1500
S'T96'
p1501
tp1502
a(S'E11'
p1503
g7
(g11
S'\x86\x00\x00\x00\x00\x00\x00\x00'
p1504
tp1505
Rp1506
S'tyrosine phosphorylation of connexin'
p1507
S'T96'
p1508
tp1509
a(S'E12'
p1510
g7
(g11
S'\x86\x00\x00\x00\x00\x00\x00\x00'
p1511
tp1512
Rp1513
S'phosphorylation of connexin'
p1514
S'T96'
p1515
tp1516
a(S'E41'
p1517
g7
(g11
S'\x87\x00\x00\x00\x00\x00\x00\x00'
p1518
tp1519
Rp1520
S'phosphorylation or SH3'
p1521
S'T96'
p1522
tp1523
a(S'E32'
p1524
g7
(g11
S'\x87\x00\x00\x00\x00\x00\x00\x00'
p1525
tp1526
Rp1527
S'v-src binding to Cx43'
p1528
S'T96'
p1529
tp1530
a(S'E19'
p1531
I137
S'association between Cx43 and pp60v-src as seen in mammalian cells, Xenopus oocytes were injected with [35S]methionine'
p1532
S'T96'
p1533
tp1534
a(S'E18'
p1535
I146
S'interaction of Cx43 and pp60v-src'
p1536
S'T97'
p1537
tp1538
a(S'E5'
p1539
g7
(g11
S'\x9a\x00\x00\x00\x00\x00\x00\x00'
p1540
tp1541
Rp1542
S'v-src binding to Cx43'
p1543
S'T97'
p1544
tp1545
a(S'E20'
p1546
g7
(g11
S'\x9e\x00\x00\x00\x00\x00\x00\x00'
p1547
tp1548
Rp1549
S'binding of v-src to Cx43'
p1550
S'T98'
p1551
tp1552
a(S'E1'
p1553
I173
S'phosphorylation of Cx43'
p1554
S'T106'
p1555
tp1556
ag1556
a(S'E40'
p1557
g7
(g11
S'\xae\x00\x00\x00\x00\x00\x00\x00'
p1558
tp1559
Rp1560
S'phosphorylation of Cx43'
p1561
S'T106'
p1562
tp1563
a(S'E30'
p1564
I178
S'v-src expression'
p1565
S'T106'
p1566
tp1567
a(S'E29'
p1568
g7
(g11
S'\xcd\x00\x00\x00\x00\x00\x00\x00'
p1569
tp1570
Rp1571
S'phosphorylation of Cx43'
p1572
S'T105'
p1573
tp1574
a(S'E35'
p1575
I205
S'v-src expression'
p1576
S'T105'
p1577
tp1578
a(S'E45'
p1579
g7
(g11
S'\xd2\x00\x00\x00\x00\x00\x00\x00'
p1580
tp1581
Rp1582
S'tyrosine phosphorylation of Cx43'
p1583
S'T105'
p1584
tp1585
a(S'E46'
p1586
g7
(g11
S'\xd2\x00\x00\x00\x00\x00\x00\x00'
p1587
tp1588
Rp1589
S'phosphorylation of Cx43'
p1590
S'T105'
p1591
tp1592
a(S'E4'
p1593
g7
(g11
S'\xd6\x00\x00\x00\x00\x00\x00\x00'
p1594
tp1595
Rp1596
S'phosphorylation of Cx43'
p1597
S'T105'
p1598
tp1599
a(S'E16'
p1600
g7
(g11
S'\xd7\x00\x00\x00\x00\x00\x00\x00'
p1601
tp1602
Rp1603
S'phosphorylation of Tyr265/247 by v-src'
p1604
S'T105'
p1605
tp1606
a(S'E22'
p1607
g7
(g11
S'\xd8\x00\x00\x00\x00\x00\x00\x00'
p1608
tp1609
Rp1610
S'serine phosphorylation of Cx43'
p1611
S'T105'
p1612
tp1613
a(S'E24'
p1614
g7
(g11
S'\xd8\x00\x00\x00\x00\x00\x00\x00'
p1615
tp1616
Rp1617
S'phosphorylation of Cx43'
p1618
S'T105'
p1619
tp1620
a(S'E21'
p1621
g7
(g11
S'\xde\x00\x00\x00\x00\x00\x00\x00'
p1622
tp1623
Rp1624
S'v-src binding to Cx43'
p1625
S'T103'
p1626
tp1627
a(S'E44'
p1628
g7
(g11
S'\xe5\x00\x00\x00\x00\x00\x00\x00'
p1629
tp1630
Rp1631
S'cadherin expression'
p1632
S'T100'
p1633
tp1634
a(S'E3'
p1635
g7
(g11
S'\xfc\x00\x00\x00\x00\x00\x00\x00'
p1636
tp1637
Rp1638
S'pp60v-src binding to Cx43 were evident in the overlapping Delta261-280 and Delta241-280 deletion mutants, and in the Y247'
p1639
S'T101'
p1640
tp1641
a(S'E31'
p1642
g7
(g11
S'\xfc\x00\x00\x00\x00\x00\x00\x00'
p1643
tp1644
Rp1645
S'pp60v-src binding to Cx43'
p1646
S'T101'
p1647
tp1648
a(S'E23'
p1649
g7
(g11
S'#\x01\x00\x00\x00\x00\x00\x00'
p1650
tp1651
Rp1652
S'phosphorylated (P'
p1653
S'T102'
p1654
tp1655
asS'PMC2211849'
p1656
(lp1657
(S'E11'
p1658
I2
S'LAB is phosphorylated'
p1659
S'T146'
p1660
tp1661
a(g1658
I2
S'LAB is phosphorylated'
p1662
S'T147'
p1663
tp1664
a(g1658
I2
S'LAB is phosphorylated'
p1665
S'T148'
p1666
tp1667
a(S'E4'
p1668
I2
S'LAB is phosphorylated and interacts with Grb2'
p1669
S'T146'
p1670
tp1671
ag1671
ag1671
a(g1658
I2
S'LAB is phosphorylated'
p1672
S'T149'
p1673
tp1674
ag1671
a(S'E51'
p1675
g7
(g11
S'\n\x00\x00\x00\x00\x00\x00\x00'
p1676
tp1677
Rp1678
S'alpha chain binds IgE'
p1679
S'T150'
p1680
tp1681
a(S'E5'
p1682
I11
S'phosphorylates the tyrosine residues within the ITAMs of the beta and gamma chains'
p1683
S'T150'
p1684
tp1685
a(S'E19'
p1686
I12
S'phosphorylated ITAMs via its tandem Src homology 2 domains and is further activated by Lyn (6, 7)'
p1687
S'T150'
p1688
tp1689
a(S'E28'
p1690
I13
S'Lyn (6, 7). These activated tyrosine kinases further phosphorylate'
p1691
S'T150'
p1692
tp1693
a(S'E15'
p1694
g7
(g11
S'\x11\x00\x00\x00\x00\x00\x00\x00'
p1695
tp1696
Rp1697
S'phosphorylation of proteins and delayed Ca2+ mobilization, but degranulation, MAPK'
p1698
S'T151'
p1699
tp1700
a(S'E75'
p1701
g7
(g11
S'\x14\x00\x00\x00\x00\x00\x00\x00'
p1702
tp1703
Rp1704
S'phosphorylate Gab2'
p1705
S'T152'
p1706
tp1707
a(S'E32'
p1708
I25
S'interacts with Grb2, Gads, and PLC-gamma1'
p1709
S'T153'
p1710
tp1711
a(S'E34'
p1712
g7
(g11
S'\x1e\x00\x00\x00\x00\x00\x00\x00'
p1713
tp1714
Rp1715
S'phosphorylation of FcepsilonRI, Syk, and Vav'
p1716
S'T154'
p1717
tp1718
a(S'E69'
p1719
g7
(g11
S'\x1e\x00\x00\x00\x00\x00\x00\x00'
p1720
tp1721
Rp1722
S'phosphorylation of FcepsilonRI, Syk'
p1723
S'T154'
p1724
tp1725
a(S'E70'
p1726
g7
(g11
S'\x1e\x00\x00\x00\x00\x00\x00\x00'
p1727
tp1728
Rp1729
S'phosphorylation of FcepsilonRI'
p1730
S'T154'
p1731
tp1732
a(S'E58'
p1733
g7
(g11
S'\x1e\x00\x00\x00\x00\x00\x00\x00'
p1734
tp1735
Rp1736
S'phosphorylation of SLP-76, PLC-gamma1, and PLC-gamma2, MAPK'
p1737
S'T154'
p1738
tp1739
a(S'E59'
p1740
g7
(g11
S'\x1e\x00\x00\x00\x00\x00\x00\x00'
p1741
tp1742
Rp1743
S'phosphorylation of SLP-76, PLC-gamma1, and PLC-gamma2'
p1744
S'T154'
p1745
tp1746
a(S'E60'
p1747
g7
(g11
S'\x1e\x00\x00\x00\x00\x00\x00\x00'
p1748
tp1749
Rp1750
S'phosphorylation of SLP-76, PLC-gamma1'
p1751
S'T154'
p1752
tp1753
a(S'E61'
p1754
g7
(g11
S'\x1e\x00\x00\x00\x00\x00\x00\x00'
p1755
tp1756
Rp1757
S'phosphorylation of SLP-76'
p1758
S'T154'
p1759
tp1760
a(S'E74'
p1761
g7
(g11
S"'\x00\x00\x00\x00\x00\x00\x00"
p1762
tp1763
Rp1764
S'LAB is phosphorylated'
p1765
S'T155'
p1766
tp1767
a(g1761
g7
(g11
S"'\x00\x00\x00\x00\x00\x00\x00"
p1768
tp1769
Rp1770
S'LAB is phosphorylated'
p1771
S'T156'
p1772
tp1773
a(g1761
g7
(g11
S"'\x00\x00\x00\x00\x00\x00\x00"
p1774
tp1775
Rp1776
S'LAB is phosphorylated'
p1777
S'T157'
p1778
tp1779
a(S'E22'
p1780
I39
S'LAB is phosphorylated and interacts with Grb2'
p1781
S'T155'
p1782
tp1783
ag1783
ag1783
a(g1761
g7
(g11
S"'\x00\x00\x00\x00\x00\x00\x00"
p1784
tp1785
Rp1786
S'LAB is phosphorylated'
p1787
S'T158'
p1788
tp1789
ag1783
a(S'E86'
p1790
I141
S'LAB Is Phosphorylated'
p1791
S'T160'
p1792
tp1793
a(S'E33'
p1794
g7
(g11
S'\x8f\x00\x00\x00\x00\x00\x00\x00'
p1795
tp1796
Rp1797
S'FcepsilonRI engagement, these kinases are activated and subsequently phosphorylate'
p1798
S'T160'
p1799
tp1800
a(S'E17'
p1801
g7
(g11
S'\x92\x00\x00\x00\x00\x00\x00\x00'
p1802
tp1803
Rp1804
S'phosphorylation of LAB and LAT'
p1805
S'T161'
p1806
tp1807
a(S'E18'
p1808
g7
(g11
S'\x92\x00\x00\x00\x00\x00\x00\x00'
p1809
tp1810
Rp1811
S'phosphorylation of LAB'
p1812
S'T161'
p1813
tp1814
a(g1801
g7
(g11
S'\x92\x00\x00\x00\x00\x00\x00\x00'
p1815
tp1816
Rp1817
S'phosphorylation of LAB and LAT'
p1818
S'T162'
p1819
tp1820
a(g1808
g7
(g11
S'\x92\x00\x00\x00\x00\x00\x00\x00'
p1821
tp1822
Rp1823
S'phosphorylation of LAB'
p1824
S'T162'
p1825
tp1826
a(S'E6'
p1827
I152
S'FcepsilonRI-mediated tyrosine phosphorylation'
p1828
S'T163'
p1829
tp1830
ag1830
a(S'E47'
p1831
g7
(g11
S'\x99\x00\x00\x00\x00\x00\x00\x00'
p1832
tp1833
Rp1834
S'LAT phosphorylation'
p1835
S'T165'
p1836
tp1837
a(S'E85'
p1838
I154
S'LAT phosphorylation'
p1839
S'T166'
p1840
tp1841
a(S'E84'
p1842
I155
S'LAB was phosphorylated'
p1843
S'T166'
p1844
tp1845
a(S'E48'
p1846
I156
S'Phosphorylated LAB'
p1847
S'T166'
p1848
tp1849
a(S'E66'
p1850
I157
S'Phosphorylation of LAB'
p1851
S'T166'
p1852
tp1853
a(S'E8'
p1854
g7
(g11
S'\x9e\x00\x00\x00\x00\x00\x00\x00'
p1855
tp1856
Rp1857
S'phosphorylation of LAB'
p1858
S'T166'
p1859
tp1860
a(S'E43'
p1861
I159
S'phosphorylation of the transmembrane adaptor proteins LAT and LAB'
p1862
S'T166'
p1863
tp1864
a(S'E44'
p1865
g7
(g11
S'\x9f\x00\x00\x00\x00\x00\x00\x00'
p1866
tp1867
Rp1868
S'phosphorylation of the transmembrane adaptor proteins LAT'
p1869
S'T166'
p1870
tp1871
a(S'E29'
p1872
g7
(g11
S'\xa0\x00\x00\x00\x00\x00\x00\x00'
p1873
tp1874
Rp1875
S'LAB tyrosine phosphorylation'
p1876
S'T167'
p1877
tp1878
a(S'E10'
p1879
g7
(g11
S'\xa3\x00\x00\x00\x00\x00\x00\x00'
p1880
tp1881
Rp1882
S'Phosphorylation of LAB and LAT'
p1883
S'T167'
p1884
tp1885
a(S'E31'
p1886
g7
(g11
S'\xa3\x00\x00\x00\x00\x00\x00\x00'
p1887
tp1888
Rp1889
S'Phosphorylation of LAB'
p1890
S'T167'
p1891
tp1892
a(S'E21'
p1893
I165
S'Phosphorylation of LAB'
p1894
S'T168'
p1895
tp1896
a(S'E37'
p1897
g7
(g11
S'\xa7\x00\x00\x00\x00\x00\x00\x00'
p1898
tp1899
Rp1900
S'Phosphorylation of LAB'
p1901
S'T169'
p1902
tp1903
a(S'E82'
p1904
g7
(g11
S'\xaa\x00\x00\x00\x00\x00\x00\x00'
p1905
tp1906
Rp1907
S'phosphorylation of LAB'
p1908
S'T170'
p1909
tp1910
a(S'E80'
p1911
I171
S'FcepsilonRI-mediated tyrosine phosphorylation'
p1912
S'T170'
p1913
tp1914
a(S'E46'
p1915
I172
S'Fig. 2 B, although overall tyrosine phosphorylation'
p1916
S'T171'
p1917
tp1918
a(S'E68'
p1919
g7
(g11
S'\xae\x00\x00\x00\x00\x00\x00\x00'
p1920
tp1921
Rp1922
S'LAB phosphorylation'
p1923
S'T172'
p1924
tp1925
a(S'E55'
p1926
g7
(g11
S'\xaf\x00\x00\x00\x00\x00\x00\x00'
p1927
tp1928
Rp1929
S'phosphorylated LAB'
p1930
S'T173'
p1931
tp1932
a(S'E83'
p1933
g7
(g11
S'\xb2\x00\x00\x00\x00\x00\x00\x00'
p1934
tp1935
Rp1936
S'phosphorylated LAT'
p1937
S'T174'
p1938
tp1939
a(S'E57'
p1940
g7
(g11
S'\xb2\x00\x00\x00\x00\x00\x00\x00'
p1941
tp1942
Rp1943
S'phosphorylated LAT and LAB'
p1944
S'T174'
p1945
tp1946
a(g1940
g7
(g11
S'\xb2\x00\x00\x00\x00\x00\x00\x00'
p1947
tp1948
Rp1949
S'phosphorylated LAT and LAB'
p1950
S'T174'
p1951
tp1952
a(S'E45'
p1953
g7
(g11
S'\xb5\x00\x00\x00\x00\x00\x00\x00'
p1954
tp1955
Rp1956
S'LAB phosphorylation'
p1957
S'T175'
p1958
tp1959
a(S'E3'
p1960
g7
(g11
S'\xb7\x00\x00\x00\x00\x00\x00\x00'
p1961
tp1962
Rp1963
S'LAB was phosphorylated'
p1964
S'T176'
p1965
tp1966
a(S'E16'
p1967
I212
S'Fig. 4 A, overall tyrosine phosphorylation'
p1968
S'T177'
p1969
tp1970
a(S'E1'
p1971
g7
(g11
S'\xd4\x00\x00\x00\x00\x00\x00\x00'
p1972
tp1973
Rp1974
S'phosphorylation of proteins, with exception of LAT'
p1975
S'T177'
p1976
tp1977
a(S'E56'
p1978
g7
(g11
S'\xd6\x00\x00\x00\x00\x00\x00\x00'
p1979
tp1980
Rp1981
S'PLC-gamma2 showed that phosphorylation'
p1982
S'T178'
p1983
tp1984
a(S'E25'
p1985
I215
S'Phosphorylation of SLP-76'
p1986
S'T179'
p1987
tp1988
a(S'E53'
p1989
g7
(g11
S'\xdc\x00\x00\x00\x00\x00\x00\x00'
p1990
tp1991
Rp1992
S'Phosphorylation of PLC-gamma1'
p1993
S'T180'
p1994
tp1995
a(S'E49'
p1996
g7
(g11
S'\xdc\x00\x00\x00\x00\x00\x00\x00'
p1997
tp1998
Rp1999
S'Phosphorylation of PLC-gamma1, PLC-gamma2, and SLP-76 in WT'
p2000
S'T180'
p2001
tp2002
a(g1996
g7
(g11
S'\xdc\x00\x00\x00\x00\x00\x00\x00'
p2003
tp2004
Rp2005
S'Phosphorylation of PLC-gamma1, PLC-gamma2, and SLP-76 in WT'
p2006
S'T180'
p2007
tp2008
a(S'E39'
p2009
I222
S'Phosphorylation of PLC-gamma1, PLC-gamma2, and SLP-76'
p2010
S'T180'
p2011
tp2012
a(S'E40'
p2013
I222
S'Phosphorylation of PLC-gamma1, PLC-gamma2'
p2014
S'T180'
p2015
tp2016
a(S'E41'
p2017
I222
S'Phosphorylation of PLC-gamma1'
p2018
S'T180'
p2019
tp2020
a(S'E27'
p2021
I273
S'phosphorylation of LAB'
p2022
S'T181'
p2023
tp2024
a(S'E23'
p2025
I284
S'FcepsilonRI-mediated tyrosine phosphorylation'
p2026
S'T182'
p2027
tp2028
a(S'E9'
p2029
g7
(g11
S'\x1d\x01\x00\x00\x00\x00\x00\x00'
p2030
tp2031
Rp2032
S'phosphorylation of PLC-gamma1 and PLC-gamma2'
p2033
S'T182'
p2034
tp2035
a(S'E67'
p2036
g7
(g11
S'\x1d\x01\x00\x00\x00\x00\x00\x00'
p2037
tp2038
Rp2039
S'phosphorylation of PLC-gamma1'
p2040
S'T182'
p2041
tp2042
a(S'E20'
p2043
g7
(g11
S'\x1e\x01\x00\x00\x00\x00\x00\x00'
p2044
tp2045
Rp2046
S'phosphorylation of PLC-gamma1 and PLC-gamma2'
p2047
S'T182'
p2048
tp2049
a(S'E73'
p2050
g7
(g11
S'\x1e\x01\x00\x00\x00\x00\x00\x00'
p2051
tp2052
Rp2053
S'phosphorylation of PLC-gamma1'
p2054
S'T182'
p2055
tp2056
a(S'E12'
p2057
I312
S'LAB was phosphorylated'
p2058
S'T183'
p2059
tp2060
a(S'E36'
p2061
g7
(g11
S'9\x01\x00\x00\x00\x00\x00\x00'
p2062
tp2063
Rp2064
S'LAB does not bind PLC-gamma1 or PLC-gamma2'
p2065
S'T183'
p2066
tp2067
a(S'E71'
p2068
g7
(g11
S'@\x01\x00\x00\x00\x00\x00\x00'
p2069
tp2070
Rp2071
S'LAB, LAT could bind more Grb2'
p2072
S'T185'
p2073
tp2074
a(S'E72'
p2075
g7
(g11
S'@\x01\x00\x00\x00\x00\x00\x00'
p2076
tp2077
Rp2078
S'LAT could bind more Grb2'
p2079
S'T185'
p2080
tp2081
a(S'E50'
p2082
g7
(g11
S'D\x01\x00\x00\x00\x00\x00\x00'
p2083
tp2084
Rp2085
S'phosphorylation of LAB'
p2086
S'T186'
p2087
tp2088
a(S'E13'
p2089
g7
(g11
S'F\x01\x00\x00\x00\x00\x00\x00'
p2090
tp2091
Rp2092
S'phosphorylation of PLC-gamma1 or PLC-gamma2, MAPK'
p2093
S'E50'
p2094
tp2095
a(S'E76'
p2096
g7
(g11
S'F\x01\x00\x00\x00\x00\x00\x00'
p2097
tp2098
Rp2099
S'phosphorylation of PLC-gamma1 or PLC-gamma2'
p2100
S'T186'
p2101
tp2102
a(S'E77'
p2103
g7
(g11
S'F\x01\x00\x00\x00\x00\x00\x00'
p2104
tp2105
Rp2106
S'phosphorylation of PLC-gamma1'
p2107
S'T186'
p2108
tp2109
asS'PMC2199152'
p2110
(lp2111
(S'E42'
p2112
I5
S'phosphorylation of CD19 Y484 and Y515'
p2113
S'T130'
p2114
tp2115
a(S'E48'
p2116
g7
(g11
S'\x05\x00\x00\x00\x00\x00\x00\x00'
p2117
tp2118
Rp2119
S'phosphorylation of CD19 Y484'
p2120
S'T130'
p2121
tp2122
a(S'E49'
p2123
g7
(g11
S'\x05\x00\x00\x00\x00\x00\x00\x00'
p2124
tp2125
Rp2126
S'phosphorylation of CD19'
p2127
S'T130'
p2128
tp2129
a(S'E35'
p2130
g7
(g11
S'@\x00\x00\x00\x00\x00\x00\x00'
p2131
tp2132
Rp2133
S'tyrosine phosphorylation of CD19'
p2134
S'T131'
p2135
tp2136
a(g2130
g7
(g11
S'@\x00\x00\x00\x00\x00\x00\x00'
p2137
tp2138
Rp2139
S'tyrosine phosphorylation of CD19'
p2140
S'T132'
p2141
tp2142
a(S'E36'
p2143
g7
(g11
S'@\x00\x00\x00\x00\x00\x00\x00'
p2144
tp2145
Rp2146
S'phosphorylation of CD19'
p2147
S'T131'
p2148
tp2149
a(g2143
g7
(g11
S'@\x00\x00\x00\x00\x00\x00\x00'
p2150
tp2151
Rp2152
S'phosphorylation of CD19'
p2153
S'T132'
p2154
tp2155
a(S'E66'
p2156
I82
S'CD19 Expression'
p2157
S'T133'
p2158
tp2159
a(S'E25'
p2160
I86
S'CD19 expression'
p2161
S'T133'
p2162
tp2163
a(S'E50'
p2164
I94
S'CD19 Expression'
p2165
S'T133'
p2166
tp2167
a(S'E2'
p2168
I95
S'recruitment of Src- and Syk-family tyrosine'
p2169
S'T134'
p2170
tp2171
a(S'E67'
p2172
I95
S'recruitment of Src- and Syk'
p2173
S'T134'
p2174
tp2175
a(S'E62'
p2176
g7
(g11
S'a\x00\x00\x00\x00\x00\x00\x00'
p2177
tp2178
Rp2179
S'CD19 expression'
p2180
S'T134'
p2181
tp2182
a(S'E75'
p2183
I102
S'CD19 expression'
p2184
S'T134'
p2185
tp2186
a(S'E5'
p2187
I102
S'phosphorylation of Ig-alpha'
p2188
S'T134'
p2189
tp2190
a(S'E26'
p2191
g7
(g11
S'g\x00\x00\x00\x00\x00\x00\x00'
p2192
tp2193
Rp2194
S'phosphorylation of Ig-alpha, Lyn, and Syk'
p2195
S'T134'
p2196
tp2197
a(S'E40'
p2198
g7
(g11
S'g\x00\x00\x00\x00\x00\x00\x00'
p2199
tp2200
Rp2201
S'phosphorylation of Ig-alpha, Lyn'
p2202
S'T134'
p2203
tp2204
a(S'E41'
p2205
g7
(g11
S'g\x00\x00\x00\x00\x00\x00\x00'
p2206
tp2207
Rp2208
S'phosphorylation of Ig-alpha'
p2209
S'T134'
p2210
tp2211
a(S'E30'
p2212
g7
(g11
S'h\x00\x00\x00\x00\x00\x00\x00'
p2213
tp2214
Rp2215
S'PLCgamma1 and PLCgamma2 tyrosine phosphorylation'
p2216
S'T134'
p2217
tp2218
a(S'E37'
p2219
I104
S'PLCgamma2 tyrosine phosphorylation'
p2220
S'T134'
p2221
tp2222
a(S'E46'
p2223
g7
(g11
S'p\x00\x00\x00\x00\x00\x00\x00'
p2224
tp2225
Rp2226
S'CD19 expression'
p2227
S'T135'
p2228
tp2229
a(S'E59'
p2230
I138
S'tyrosine phosphorylation of Ig-alpha'
p2231
S'T136'
p2232
tp2233
a(S'E22'
p2234
g7
(g11
S'\x8a\x00\x00\x00\x00\x00\x00\x00'
p2235
tp2236
Rp2237
S'phosphorylation of Ig-alpha, Lyn, and Syk'
p2238
S'T136'
p2239
tp2240
a(S'E23'
p2241
I138
S'phosphorylation of Ig-alpha, Lyn'
p2242
S'T136'
p2243
tp2244
a(S'E4'
p2245
I139
S'PLCgamma1 and PLCgamma2 tyrosine phosphorylation'
p2246
S'T137'
p2247
tp2248
a(S'E1'
p2249
g7
(g11
S'\x8b\x00\x00\x00\x00\x00\x00\x00'
p2250
tp2251
Rp2252
S'PLCgamma2 tyrosine phosphorylation was somewhat sensitive to wortmannin preincubation although the decrease in induced tyrosine'
p2253
S'T137'
p2254
tp2255
a(S'E3'
p2256
g7
(g11
S'\x8b\x00\x00\x00\x00\x00\x00\x00'
p2257
tp2258
Rp2259
S'PLCgamma2 tyrosine phosphorylation'
p2260
S'T137'
p2261
tp2262
a(S'E65'
p2263
g7
(g11
S'\x8c\x00\x00\x00\x00\x00\x00\x00'
p2264
tp2265
Rp2266
S'PLCgamma phosphorylation'
p2267
S'T137'
p2268
tp2269
a(S'E68'
p2270
g7
(g11
S'\x8c\x00\x00\x00\x00\x00\x00\x00'
p2271
tp2272
Rp2273
S'CD19 expression'
p2274
S'T137'
p2275
tp2276
a(S'E20'
p2277
I149
S'phosphorylation of CD19 Y484 and Y515'
p2278
S'T138'
p2279
tp2280
a(S'E19'
p2281
g7
(g11
S'\x95\x00\x00\x00\x00\x00\x00\x00'
p2282
tp2283
Rp2284
S'phosphorylation of CD19 Y484'
p2285
S'T138'
p2286
tp2287
a(S'E21'
p2288
g7
(g11
S'\x95\x00\x00\x00\x00\x00\x00\x00'
p2289
tp2290
Rp2291
S'phosphorylation of CD19'
p2292
S'T138'
p2293
tp2294
a(S'E52'
p2295
g7
(g11
S'\xae\x00\x00\x00\x00\x00\x00\x00'
p2296
tp2297
Rp2298
S'Ig-alpha, Lyn, Syk, PLCgamma1, and PLCgamma2-inductive tyrosine phosphorylation'
p2299
S'T139'
p2300
tp2301
a(g2295
g7
(g11
S'\xae\x00\x00\x00\x00\x00\x00\x00'
p2302
tp2303
Rp2304
S'Ig-alpha, Lyn, Syk, PLCgamma1, and PLCgamma2-inductive tyrosine phosphorylation'
p2305
S'T140'
p2306
tp2307
a(g2295
g7
(g11
S'\xae\x00\x00\x00\x00\x00\x00\x00'
p2308
tp2309
Rp2310
S'Ig-alpha, Lyn, Syk, PLCgamma1, and PLCgamma2-inductive tyrosine phosphorylation'
p2311
S'T141'
p2312
tp2313
a(S'E57'
p2314
g7
(g11
S'\xae\x00\x00\x00\x00\x00\x00\x00'
p2315
tp2316
Rp2317
S'Lyn, Syk, PLCgamma1, and PLCgamma2-inductive tyrosine phosphorylation'
p2318
S'T139'
p2319
tp2320
a(g2314
g7
(g11
S'\xae\x00\x00\x00\x00\x00\x00\x00'
p2321
tp2322
Rp2323
S'Lyn, Syk, PLCgamma1, and PLCgamma2-inductive tyrosine phosphorylation'
p2324
S'T140'
p2325
tp2326
a(g2314
g7
(g11
S'\xae\x00\x00\x00\x00\x00\x00\x00'
p2327
tp2328
Rp2329
S'Lyn, Syk, PLCgamma1, and PLCgamma2-inductive tyrosine phosphorylation'
p2330
S'T141'
p2331
tp2332
a(S'E56'
p2333
g7
(g11
S'\xae\x00\x00\x00\x00\x00\x00\x00'
p2334
tp2335
Rp2336
S'Syk, PLCgamma1, and PLCgamma2-inductive tyrosine phosphorylation'
p2337
S'T139'
p2338
tp2339
a(g2333
g7
(g11
S'\xae\x00\x00\x00\x00\x00\x00\x00'
p2340
tp2341
Rp2342
S'Syk, PLCgamma1, and PLCgamma2-inductive tyrosine phosphorylation'
p2343
S'T140'
p2344
tp2345
a(g2333
g7
(g11
S'\xae\x00\x00\x00\x00\x00\x00\x00'
p2346
tp2347
Rp2348
S'Syk, PLCgamma1, and PLCgamma2-inductive tyrosine phosphorylation'
p2349
S'T141'
p2350
tp2351
a(S'E55'
p2352
g7
(g11
S'\xae\x00\x00\x00\x00\x00\x00\x00'
p2353
tp2354
Rp2355
S'PLCgamma1, and PLCgamma2-inductive tyrosine phosphorylation'
p2356
S'T139'
p2357
tp2358
a(g2352
g7
(g11
S'\xae\x00\x00\x00\x00\x00\x00\x00'
p2359
tp2360
Rp2361
S'PLCgamma1, and PLCgamma2-inductive tyrosine phosphorylation'
p2362
S'T140'
p2363
tp2364
a(g2352
g7
(g11
S'\xae\x00\x00\x00\x00\x00\x00\x00'
p2365
tp2366
Rp2367
S'PLCgamma1, and PLCgamma2-inductive tyrosine phosphorylation'
p2368
S'T141'
p2369
tp2370
a(S'E16'
p2371
g7
(g11
S'\xb0\x00\x00\x00\x00\x00\x00\x00'
p2372
tp2373
Rp2374
S'phosphorylation of Ig-alpha, Lyn, and Syk'
p2375
S'T139'
p2376
tp2377
a(S'E17'
p2378
g7
(g11
S'\xb0\x00\x00\x00\x00\x00\x00\x00'
p2379
tp2380
Rp2381
S'phosphorylation of Ig-alpha, Lyn'
p2382
S'T139'
p2383
tp2384
a(S'E18'
p2385
g7
(g11
S'\xb0\x00\x00\x00\x00\x00\x00\x00'
p2386
tp2387
Rp2388
S'phosphorylation of Ig-alpha'
p2389
S'T139'
p2390
tp2391
a(g2385
g7
(g11
S'\xb0\x00\x00\x00\x00\x00\x00\x00'
p2392
tp2393
Rp2394
S'phosphorylation of Ig-alpha'
p2395
S'T140'
p2396
tp2397
a(g2371
g7
(g11
S'\xb0\x00\x00\x00\x00\x00\x00\x00'
p2398
tp2399
Rp2400
S'phosphorylation of Ig-alpha, Lyn, and Syk'
p2401
S'T140'
p2402
tp2403
a(g2378
g7
(g11
S'\xb0\x00\x00\x00\x00\x00\x00\x00'
p2404
tp2405
Rp2406
S'phosphorylation of Ig-alpha, Lyn'
p2407
S'T140'
p2408
tp2409
a(g2371
g7
(g11
S'\xb0\x00\x00\x00\x00\x00\x00\x00'
p2410
tp2411
Rp2412
S'phosphorylation of Ig-alpha, Lyn, and Syk'
p2413
S'T141'
p2414
tp2415
a(g2378
g7
(g11
S'\xb0\x00\x00\x00\x00\x00\x00\x00'
p2416
tp2417
Rp2418
S'phosphorylation of Ig-alpha, Lyn'
p2419
S'T141'
p2420
tp2421
a(g2385
g7
(g11
S'\xb0\x00\x00\x00\x00\x00\x00\x00'
p2422
tp2423
Rp2424
S'phosphorylation of Ig-alpha'
p2425
S'T141'
p2426
tp2427
a(S'E11'
p2428
g7
(g11
S'\xb2\x00\x00\x00\x00\x00\x00\x00'
p2429
tp2430
Rp2431
S'phosphorylation of BCR receptor'
p2432
S'T140'
p2433
tp2434
a(S'E10'
p2435
g7
(g11
S'\xb2\x00\x00\x00\x00\x00\x00\x00'
p2436
tp2437
Rp2438
S'phosphorylation of BCR receptor'
p2439
S'T140'
p2440
tp2441
a(g2428
g7
(g11
S'\xb2\x00\x00\x00\x00\x00\x00\x00'
p2442
tp2443
Rp2444
S'phosphorylation of BCR receptor'
p2445
S'T139'
p2446
tp2447
a(g2435
g7
(g11
S'\xb2\x00\x00\x00\x00\x00\x00\x00'
p2448
tp2449
Rp2450
S'phosphorylation of BCR receptor'
p2451
S'T139'
p2452
tp2453
a(g2428
g7
(g11
S'\xb2\x00\x00\x00\x00\x00\x00\x00'
p2454
tp2455
Rp2456
S'phosphorylation of BCR receptor'
p2457
S'T141'
p2458
tp2459
a(g2435
g7
(g11
S'\xb2\x00\x00\x00\x00\x00\x00\x00'
p2460
tp2461
Rp2462
S'phosphorylation of BCR receptor'
p2463
S'T141'
p2464
tp2465
a(S'E47'
p2466
g7
(g11
S'\xb3\x00\x00\x00\x00\x00\x00\x00'
p2467
tp2468
Rp2469
S'Ig-alpha phosphorylation'
p2470
S'T140'
p2471
tp2472
a(g2466
g7
(g11
S'\xb3\x00\x00\x00\x00\x00\x00\x00'
p2473
tp2474
Rp2475
S'Ig-alpha phosphorylation'
p2476
S'T139'
p2477
tp2478
a(g2466
g7
(g11
S'\xb3\x00\x00\x00\x00\x00\x00\x00'
p2479
tp2480
Rp2481
S'Ig-alpha phosphorylation'
p2482
S'T141'
p2483
tp2484
a(S'E8'
p2485
g7
(g11
S'\xb9\x00\x00\x00\x00\x00\x00\x00'
p2486
tp2487
Rp2488
S'PLCgamma1 and PLCgamma2 tyrosine phosphorylation'
p2489
S'T142'
p2490
tp2491
a(S'E73'
p2492
g7
(g11
S'\xb9\x00\x00\x00\x00\x00\x00\x00'
p2493
tp2494
Rp2495
S'PLCgamma2 tyrosine phosphorylation'
p2496
S'T142'
p2497
tp2498
a(S'E54'
p2499
I186
S'PLCgamma1 and PLCgamma2 tyrosine phosphorylation'
p2500
S'T142'
p2501
tp2502
a(S'E53'
p2503
I186
S'PLCgamma2 tyrosine phosphorylation'
p2504
S'T142'
p2505
tp2506
a(S'E14'
p2507
g7
(g11
S'\xc6\x00\x00\x00\x00\x00\x00\x00'
p2508
tp2509
Rp2510
S'tyrosine phosphorylation of Btk'
p2511
S'T145'
p2512
tp2513
a(S'E15'
p2514
g7
(g11
S'\xc6\x00\x00\x00\x00\x00\x00\x00'
p2515
tp2516
Rp2517
S'phosphorylation of Btk'
p2518
S'T145'
p2519
tp2520
a(S'E29'
p2521
g7
(g11
S'\xc7\x00\x00\x00\x00\x00\x00\x00'
p2522
tp2523
Rp2524
S'phosphorylation of PLCgamma'
p2525
S'T143'
p2526
tp2527
a(g2521
g7
(g11
S'\xc7\x00\x00\x00\x00\x00\x00\x00'
p2528
tp2529
Rp2530
S'phosphorylation of PLCgamma'
p2531
S'T144'
p2532
tp2533
a(S'E39'
p2534
g7
(g11
S'\xc8\x00\x00\x00\x00\x00\x00\x00'
p2535
tp2536
Rp2537
S'tyrosine phosphorylation of PLCgamma'
p2538
S'T143'
p2539
tp2540
a(g2534
g7
(g11
S'\xc8\x00\x00\x00\x00\x00\x00\x00'
p2541
tp2542
Rp2543
S'tyrosine phosphorylation of PLCgamma'
p2544
S'T144'
p2545
tp2546
a(S'E71'
p2547
g7
(g11
S'\xc8\x00\x00\x00\x00\x00\x00\x00'
p2548
tp2549
Rp2550
S'phosphorylation of PLCgamma'
p2551
S'T143'
p2552
tp2553
a(g2547
g7
(g11
S'\xc8\x00\x00\x00\x00\x00\x00\x00'
p2554
tp2555
Rp2556
S'phosphorylation of PLCgamma'
p2557
S'T144'
p2558
tp2559
a(S'E28'
p2560
g7
(g11
S'\xc9\x00\x00\x00\x00\x00\x00\x00'
p2561
tp2562
Rp2563
S'CD19 phosphorylation'
p2564
S'T147'
p2565
tp2566
a(g2560
g7
(g11
S'\xc9\x00\x00\x00\x00\x00\x00\x00'
p2567
tp2568
Rp2569
S'CD19 phosphorylation'
p2570
S'T146'
p2571
tp2572
a(S'E24'
p2573
g7
(g11
S'\xd2\x00\x00\x00\x00\x00\x00\x00'
p2574
tp2575
Rp2576
S'CD19 tyrosine phosphorylation'
p2577
S'T148'
p2578
tp2579
a(S'E32'
p2580
g7
(g11
S'\xd5\x00\x00\x00\x00\x00\x00\x00'
p2581
tp2582
Rp2583
S'binding of immune complexes to FcgammaRIIB1 and the BCR, in which case CD19 tyrosine'
p2584
S'T148'
p2585
tp2586
a(S'E33'
p2587
g7
(g11
S'\xd5\x00\x00\x00\x00\x00\x00\x00'
p2588
tp2589
Rp2590
S'binding of immune complexes to FcgammaRIIB1 and the BCR'
p2591
S'T148'
p2592
tp2593
a(S'E34'
p2594
g7
(g11
S'\xda\x00\x00\x00\x00\x00\x00\x00'
p2595
tp2596
Rp2597
S'bound to the FcgammaRIIB1 and the BCR, in which case CD19 tyrosine'
p2598
S'T149'
p2599
tp2600
a(S'E58'
p2601
g7
(g11
S'\xda\x00\x00\x00\x00\x00\x00\x00'
p2602
tp2603
Rp2604
S'CD19 tyrosine phosphorylation'
p2605
S'T149'
p2606
tp2607
a(S'E76'
p2608
g7
(g11
S'\xdc\x00\x00\x00\x00\x00\x00\x00'
p2609
tp2610
Rp2611
S'CD19 tyrosine phosphorylation'
p2612
S'T149'
p2613
tp2614
a(g2608
g7
(g11
S'\xdc\x00\x00\x00\x00\x00\x00\x00'
p2615
tp2616
Rp2617
S'CD19 tyrosine phosphorylation'
p2618
S'T149'
p2619
tp2620
a(S'E69'
p2621
g7
(g11
S'\xe0\x00\x00\x00\x00\x00\x00\x00'
p2622
tp2623
Rp2624
S'CD19 and BCR expression'
p2625
S'T150'
p2626
tp2627
a(S'E70'
p2628
g7
(g11
S'\xe0\x00\x00\x00\x00\x00\x00\x00'
p2629
tp2630
Rp2631
S'BCR expression'
p2632
S'T150'
p2633
tp2634
a(S'E9'
p2635
g7
(g11
S'\x0c\x01\x00\x00\x00\x00\x00\x00'
p2636
tp2637
Rp2638
S'phosphorylation of PLCgamma1 and PLCgamma2 is slightly inhibited by wortmannin, while Lyn, Ig-alpha and Syk inductive tyrosine'
p2639
S'T151'
p2640
tp2641
a(S'E63'
p2642
g7
(g11
S'\x0c\x01\x00\x00\x00\x00\x00\x00'
p2643
tp2644
Rp2645
S'phosphorylation of PLCgamma1 and PLCgamma2'
p2646
S'T151'
p2647
tp2648
a(S'E64'
p2649
g7
(g11
S'\x0c\x01\x00\x00\x00\x00\x00\x00'
p2650
tp2651
Rp2652
S'phosphorylation of PLCgamma1'
p2653
S'T151'
p2654
tp2655
asS'PMC2212994'
p2656
(lp2657
(S'E17'
p2658
I3
S'phosphorylated CARMA1'
p2659
S'T1'
p2660
tp2661
a(S'E28'
p2662
g7
(g11
S'\x05\x00\x00\x00\x00\x00\x00\x00'
p2663
tp2664
Rp2665
S'phosphorylation of CARMA1'
p2666
S'T1'
p2667
tp2668
a(S'E60'
p2669
I5
S'phosphorylate IKK'
p2670
S'T1'
p2671
tp2672
a(S'E6'
p2673
I-1
S'phosphorylation and subsequent degradation of IkappaBs'
p2674
S'T19'
p2675
tp2676
ag2676
a(S'E54'
p2677
I-1
S'CARMA1 directly binds to Bcl10'
p2678
S'T14'
p2679
tp2680
a(S'E34'
p2681
I-1
S'phosphorylation of CARMA1'
p2682
S'T14'
p2683
tp2684
a(S'E50'
p2685
g7
(g11
S'\x11\x00\x00\x00\x00\x00\x00\x00'
p2686
tp2687
Rp2688
S'phosphorylation of GST-IkappaBalpha'
p2689
S'T17'
p2690
tp2691
a(S'E14'
p2692
g7
(g11
S'\x15\x00\x00\x00\x00\x00\x00\x00'
p2693
tp2694
Rp2695
S'phosphorylation of either IKKalpha'
p2696
S'T21'
p2697
tp2698
a(S'E45'
p2699
g7
(g11
S'\x15\x00\x00\x00\x00\x00\x00\x00'
p2700
tp2701
Rp2702
S'phosphorylation of either IKKalpha or IKKbeta'
p2703
S'T21'
p2704
tp2705
a(g2699
g7
(g11
S'\x15\x00\x00\x00\x00\x00\x00\x00'
p2706
tp2707
Rp2708
S'phosphorylation of either IKKalpha or IKKbeta'
p2709
S'T18'
p2710
tp2711
a(g2692
g7
(g11
S'\x15\x00\x00\x00\x00\x00\x00\x00'
p2712
tp2713
Rp2714
S'phosphorylation of either IKKalpha'
p2715
S'T18'
p2716
tp2717
a(S'E9'
p2718
I31
S'phosphorylation of Flag'
p2719
S'T48'
p2720
tp2721
a(S'E65'
p2722
g7
(g11
S'%\x00\x00\x00\x00\x00\x00\x00'
p2723
tp2724
Rp2725
S'autophosphorylation of TAK1'
p2726
S'T28'
p2727
tp2728
a(g2722
g7
(g11
S'%\x00\x00\x00\x00\x00\x00\x00'
p2729
tp2730
Rp2731
S'autophosphorylation of TAK1'
p2732
S'T16'
p2733
tp2734
a(g2722
g7
(g11
S'%\x00\x00\x00\x00\x00\x00\x00'
p2735
tp2736
Rp2737
S'autophosphorylation of TAK1'
p2738
S'T49'
p2739
tp2740
a(S'E79'
p2741
I45
S'BCR-mediated NF-kappaB activation'
p2742
S'T26'
p2743
tp2744
a(S'E73'
p2745
g7
(g11
S'/\x00\x00\x00\x00\x00\x00\x00'
p2746
tp2747
Rp2748
S'JNK phosphorylation'
p2749
S'T27'
p2750
tp2751
a(S'E63'
p2752
g7
(g11
S'3\x00\x00\x00\x00\x00\x00\x00'
p2753
tp2754
Rp2755
S'interaction between TAK1 and PKCbeta'
p2756
S'T29'
p2757
tp2758
a(S'E70'
p2759
g7
(g11
S'7\x00\x00\x00\x00\x00\x00\x00'
p2760
tp2761
Rp2762
S'phosphorylation upon BCR'
p2763
S'T33'
p2764
tp2765
a(S'E81'
p2766
g7
(g11
S'8\x00\x00\x00\x00\x00\x00\x00'
p2767
tp2768
Rp2769
S'CARMA1 underwent phosphorylation'
p2770
S'T32'
p2771
tp2772
a(S'E24'
p2773
g7
(g11
S'9\x00\x00\x00\x00\x00\x00\x00'
p2774
tp2775
Rp2776
S'CARMA1 phosphorylation'
p2777
S'T32'
p2778
tp2779
a(g2773
g7
(g11
S'9\x00\x00\x00\x00\x00\x00\x00'
p2780
tp2781
Rp2782
S'CARMA1 phosphorylation'
p2783
S'T22'
p2784
tp2785
a(S'E22'
p2786
I60
S'phosphorylation of CARMA1'
p2787
S'T31'
p2788
tp2789
a(S'E64'
p2790
g7
(g11
S'B\x00\x00\x00\x00\x00\x00\x00'
p2791
tp2792
Rp2793
S'TAK1 interacts with PKCbeta'
p2794
S'T30'
p2795
tp2796
a(S'E1'
p2797
g7
(g11
S'C\x00\x00\x00\x00\x00\x00\x00'
p2798
tp2799
Rp2800
S'interaction between TAK1 and CARMA1'
p2801
S'T15'
p2802
tp2803
a(g2797
g7
(g11
S'C\x00\x00\x00\x00\x00\x00\x00'
p2804
tp2805
Rp2806
S'interaction between TAK1 and CARMA1'
p2807
S'T51'
p2808
tp2809
a(S'E3'
p2810
g7
(g11
S'Z\x00\x00\x00\x00\x00\x00\x00'
p2811
tp2812
Rp2813
S'interaction between TAK1 and CARMA1'
p2814
S'T15'
p2815
tp2816
a(S'E40'
p2817
g7
(g11
S'[\x00\x00\x00\x00\x00\x00\x00'
p2818
tp2819
Rp2820
S'CARMA1 phosphorylation'
p2821
S'T15'
p2822
tp2823
a(S'E21'
p2824
g7
(g11
S'\\\x00\x00\x00\x00\x00\x00\x00'
p2825
tp2826
Rp2827
S'phosphorylation of CARMA1'
p2828
S'T35'
p2829
tp2830
a(g2824
g7
(g11
S'\\\x00\x00\x00\x00\x00\x00\x00'
p2831
tp2832
Rp2833
S'phosphorylation of CARMA1'
p2834
S'T15'
p2835
tp2836
a(S'E4'
p2837
g7
(g11
S'_\x00\x00\x00\x00\x00\x00\x00'
p2838
tp2839
Rp2840
S'interaction between TAK1 and CARMA1'
p2841
S'T39'
p2842
tp2843
a(S'E26'
p2844
g7
(g11
S'`\x00\x00\x00\x00\x00\x00\x00'
p2845
tp2846
Rp2847
S'CARMA1 phosphorylation'
p2848
S'T39'
p2849
tp2850
a(S'E82'
p2851
g7
(g11
S'a\x00\x00\x00\x00\x00\x00\x00'
p2852
tp2853
Rp2854
S'association of CARMA1 with Bcl10 and MALT1'
p2855
S'T52'
p2856
tp2857
a(S'E19'
p2858
I97
S'phosphorylation status of CARMA1'
p2859
S'T52'
p2860
tp2861
a(S'E38'
p2862
g7
(g11
S'b\x00\x00\x00\x00\x00\x00\x00'
p2863
tp2864
Rp2865
S'CARMA1 phosphorylation'
p2866
S'T52'
p2867
tp2868
a(S'E83'
p2869
I99
S'Interaction of TAK1 with CARMA1 is dependent on PKCbeta.'
p2870
S'T40'
p2871
tp2872
a(S'E42'
p2873
g7
(g11
S'd\x00\x00\x00\x00\x00\x00\x00'
p2874
tp2875
Rp2876
S'phosphorylation of CARMA1'
p2877
S'T40'
p2878
tp2879
a(S'E84'
p2880
g7
(g11
S'd\x00\x00\x00\x00\x00\x00\x00'
p2881
tp2882
Rp2883
S'For association of TAK1 and CARMA1'
p2884
S'T56'
p2885
tp2886
a(S'E85'
p2887
g7
(g11
S'e\x00\x00\x00\x00\x00\x00\x00'
p2888
tp2889
Rp2890
S'interaction of CARMA1 with Bcl10 or MALT1'
p2891
S'T58'
p2892
tp2893
a(S'E18'
p2894
g7
(g11
S'f\x00\x00\x00\x00\x00\x00\x00'
p2895
tp2896
Rp2897
S'CARMA1 phosphorylation'
p2898
S'T40'
p2899
tp2900
a(S'E10'
p2901
g7
(g11
S'g\x00\x00\x00\x00\x00\x00\x00'
p2902
tp2903
Rp2904
S'phosphorylation on multiple serine and threonine residues upon BCR'
p2905
S'T40'
p2906
tp2907
a(S'E62'
p2908
I104
S'phosphorylate IKK'
p2909
S'T41'
p2910
tp2911
a(S'E31'
p2912
g7
(g11
S'i\x00\x00\x00\x00\x00\x00\x00'
p2913
tp2914
Rp2915
S'phosphorylated CARMA1'
p2916
S'T41'
p2917
tp2918
a(S'E61'
p2919
I108
S'phosphorylate IKK'
p2920
S'T41'
p2921
tp2922
a(S'E46'
p2923
I112
S'phosphorylate IKKbeta'
p2924
S'T41'
p2925
tp2926
ag2926
a(S'E7'
p2927
g7
(g11
S'r\x00\x00\x00\x00\x00\x00\x00'
p2928
tp2929
Rp2930
S'phosphorylation of recombinant GST-IKKbeta'
p2931
S'T41'
p2932
tp2933
a(S'E36'
p2934
g7
(g11
S'x\x00\x00\x00\x00\x00\x00\x00'
p2935
tp2936
Rp2937
S'CARMA1 phosphorylation'
p2938
S'T60'
p2939
tp2940
a(S'E11'
p2941
g7
(g11
S'x\x00\x00\x00\x00\x00\x00\x00'
p2942
tp2943
Rp2944
S'phosphorylates CARMA1'
p2945
S'T60'
p2946
tp2947
a(S'E86'
p2948
g7
(g11
S'y\x00\x00\x00\x00\x00\x00\x00'
p2949
tp2950
Rp2951
S'PDK1 might facilitate the functional interaction between PKCbeta and CARMA1'
p2952
S'T60'
p2953
tp2954
a(S'E43'
p2955
g7
(g11
S'|\x00\x00\x00\x00\x00\x00\x00'
p2956
tp2957
Rp2958
S'phosphorylates several tyrosine residues on phospholipase C-gamma2'
p2959
S'T43'
p2960
tp2961
a(S'E37'
p2962
I125
S'phosphorylates CARMA1'
p2963
S'T43'
p2964
tp2965
a(S'E76'
p2966
I125
S'phosphorylated CARMA1 (2)'
p2967
S'T43'
p2968
tp2969
a(S'E33'
p2970
I128
S'phosphorylation of CARMA1'
p2971
S'T43'
p2972
tp2973
a(S'E27'
p2974
g7
(g11
S'\x81\x00\x00\x00\x00\x00\x00\x00'
p2975
tp2976
Rp2977
S'phosphorylation status of CARMA1'
p2978
S'T43'
p2979
tp2980
a(S'E25'
p2981
g7
(g11
S'\x82\x00\x00\x00\x00\x00\x00\x00'
p2982
tp2983
Rp2984
S'phosphorylation of CARMA1'
p2985
S'T44'
p2986
tp2987
a(S'E16'
p2988
g7
(g11
S'\x82\x00\x00\x00\x00\x00\x00\x00'
p2989
tp2990
Rp2991
S'CARMA1 phosphorylation'
p2992
S'T44'
p2993
tp2994
a(S'E41'
p2995
g7
(g11
S'\x9a\x00\x00\x00\x00\x00\x00\x00'
p2996
tp2997
Rp2998
S'CARMA1 phosphorylation'
p2999
S'T47'
p3000
tp3001
a(S'E49'
p3002
g7
(g11
S'\x9f\x00\x00\x00\x00\x00\x00\x00'
p3003
tp3004
Rp3005
S'phosphorylate IKKbeta'
p3006
S'T47'
p3007
tp3008
a(S'E20'
p3009
I164
S'Phosphorylation of a specific scaffold molecule, CARMA1'
p3010
S'T61'
p3011
tp3012
asS'PMC3355962'
p3013
(lp3014
(S'E5'
p3015
g7
(g11
S'\xdb\x00\x00\x00\x00\x00\x00\x00'
p3016
tp3017
Rp3018
S'Akt phosphorylation'
p3019
S'T7'
p3020
tp3021
a(S'E115'
p3022
g7
(g11
S'\xe2\x00\x00\x00\x00\x00\x00\x00'
p3023
tp3024
Rp3025
S'interact with IGFR, PKC, and beta1 integrin'
p3026
S'T3'
p3027
tp3028
a(S'E49'
p3029
I237
S'SHPS-1 is phosphorylated'
p3030
S'T5'
p3031
tp3032
a(S'E28'
p3033
g7
(g11
S'\x1c\x01\x00\x00\x00\x00\x00\x00'
p3034
tp3035
Rp3036
S'phosphorylation of STAT3'
p3037
S'T1'
p3038
tp3039
asS'PMC2386837'
p3040
(lp3041
(S'E2'
p3042
I25
S'Raf regulation in general.  Phosphorylation'
p3043
S'T107'
p3044
tp3045
a(S'E20'
p3046
I35
S'Ras-binding domain (RBD'
p3047
S'T108'
p3048
tp3049
a(S'E7'
p3050
I40
S'C-Raf is mainly phosphorylated on S338, Y341, T491, and S494'
p3051
S'T109'
p3052
tp3053
a(S'E4'
p3054
g7
(g11
S'J\x00\x00\x00\x00\x00\x00\x00'
p3055
tp3056
Rp3057
S'formation of a complex between Shc and Grb2, an event upstream of Ras'
p3058
S'T115'
p3059
tp3060
a(S'E29'
p3061
g7
(g11
S'^\x00\x00\x00\x00\x00\x00\x00'
p3062
tp3063
Rp3064
S'Dsor1 phosphorylation'
p3065
S'T116'
p3066
tp3067
a(S'E48'
p3068
I111
S'Dsor1 phosphorylation'
p3069
S'T114'
p3070
tp3071
ag3071
a(S'E44'
p3072
g7
(g11
S'^\x00\x00\x00\x00\x00\x00\x00'
p3073
tp3074
Rp3075
S'Dsor1 phosphorylation'
p3076
S'T118'
p3077
tp3078
a(g3072
g7
(g11
S'^\x00\x00\x00\x00\x00\x00\x00'
p3079
tp3080
Rp3081
S'Dsor1 phosphorylation'
p3082
S'T119'
p3083
tp3084
a(S'E19'
p3085
I122
S'Src64B Binds to and Phosphorylates Draf'
p3086
S'T110'
p3087
tp3088
ag3088
a(S'E47'
p3089
I122
S'Phosphorylates Draf on Y510'
p3090
S'T110'
p3091
tp3092
ag3092
a(S'E34'
p3093
I123
S'phosphorylates Draf'
p3094
S'T110'
p3095
tp3096
ag3096
a(S'E33'
p3097
I126
S'phosphorylate Draf'
p3098
S'T111'
p3099
tp3100
ag3100
a(S'E21'
p3101
g7
(g11
S'\x7f\x00\x00\x00\x00\x00\x00\x00'
p3102
tp3103
Rp3104
S'GST-Src64Bact phosphorylated'
p3105
S'T110'
p3106
tp3107
a(g3101
g7
(g11
S'\x7f\x00\x00\x00\x00\x00\x00\x00'
p3108
tp3109
Rp3110
S'GST-Src64Bact phosphorylated'
p3111
S'T111'
p3112
tp3113
a(S'E35'
p3114
g7
(g11
S'\x80\x00\x00\x00\x00\x00\x00\x00'
p3115
tp3116
Rp3117
S'Src binds to and phosphorylates C-Raf'
p3118
S'T111'
p3119
tp3120
a(g3114
g7
(g11
S'\x80\x00\x00\x00\x00\x00\x00\x00'
p3121
tp3122
Rp3123
S'Src binds to and phosphorylates C-Raf'
p3124
S'T110'
p3125
tp3126
a(S'E32'
p3127
I128
S'phosphorylates C-Raf on tyrosine residues'
p3128
S'T111'
p3129
tp3130
ag3130
a(S'E18'
p3131
g7
(g11
S'\x81\x00\x00\x00\x00\x00\x00\x00'
p3132
tp3133
Rp3134
S'binding to C-Raf by the SH2 domain of Src'
p3135
S'T110'
p3136
tp3137
a(g3131
g7
(g11
S'\x81\x00\x00\x00\x00\x00\x00\x00'
p3138
tp3139
Rp3140
S'binding to C-Raf by the SH2 domain of Src'
p3141
S'T111'
p3142
tp3143
a(S'E23'
p3144
I130
S'phosphorylate Draf'
p3145
S'T111'
p3146
tp3147
ag3147
a(S'E25'
p3148
I131
S'Src64B Binds to Draf and Phosphorylates Draf'
p3149
S'T110'
p3150
tp3151
a(S'E36'
p3152
I131
S'Src64B Binds to Draf'
p3153
S'T110'
p3154
tp3155
ag3151
ag3155
a(S'E24'
p3156
I131
S'Phosphorylates Draf on Y510'
p3157
S'T111'
p3158
tp3159
ag3159
a(S'E31'
p3160
I136
S'phosphorylation of Draf'
p3161
S'T121'
p3162
tp3163
a(S'E27'
p3164
I146
S'phosphorylates Draf-C on Y510'
p3165
S'T122'
p3166
tp3167
a(S'E1'
p3168
g7
(g11
S'\x93\x00\x00\x00\x00\x00\x00\x00'
p3169
tp3170
Rp3171
S'phosphorylates Draf-C on Y510'
p3172
S'T122'
p3173
tp3174
a(S'E15'
p3175
g7
(g11
S'\x95\x00\x00\x00\x00\x00\x00\x00'
p3176
tp3177
Rp3178
S'phosphorylation on different Draf-C molecules'
p3179
S'T122'
p3180
tp3181
a(S'E11'
p3182
I154
S'phosphorylation of endogenous Draf (green; anti-pY510'
p3183
S'T122'
p3184
tp3185
a(S'E6'
p3186
g7
(g11
S'\x9f\x00\x00\x00\x00\x00\x00\x00'
p3187
tp3188
Rp3189
S'tyrosine residues in Draf that can be phosphorylated'
p3190
S'T123'
p3191
tp3192
a(S'E41'
p3193
g7
(g11
S'\xa5\x00\x00\x00\x00\x00\x00\x00'
p3194
tp3195
Rp3196
S'phosphorylates Draf on Y510'
p3197
S'T124'
p3198
tp3199
a(S'E16'
p3200
g7
(g11
S'\xa6\x00\x00\x00\x00\x00\x00\x00'
p3201
tp3202
Rp3203
S'phosphorylated DrafWT, but not DrafY510F'
p3204
S'T124'
p3205
tp3206
a(S'E40'
p3207
g7
(g11
S'\xa8\x00\x00\x00\x00\x00\x00\x00'
p3208
tp3209
Rp3210
S'phosphorylation of Y510 in Draf'
p3211
S'T124'
p3212
tp3213
a(S'E30'
p3214
g7
(g11
S'\xac\x00\x00\x00\x00\x00\x00\x00'
p3215
tp3216
Rp3217
S'phosphorylation of Raf'
p3218
S'T125'
p3219
tp3220
a(S'E26'
p3221
g7
(g11
S'\xad\x00\x00\x00\x00\x00\x00\x00'
p3222
tp3223
Rp3224
S'phosphorylated upon Draf'
p3225
S'T125'
p3226
tp3227
a(S'E13'
p3228
I183
S'Dsor1 phosphorylation'
p3229
S'T126'
p3230
tp3231
a(S'E37'
p3232
g7
(g11
S'\xd3\x00\x00\x00\x00\x00\x00\x00'
p3233
tp3234
Rp3235
S'Src64B phosphorylation'
p3236
S'T127'
p3237
tp3238
a(S'E43'
p3239
g7
(g11
S'\x08\x01\x00\x00\x00\x00\x00\x00'
p3240
tp3241
Rp3242
S'phosphorylation of Draf'
p3243
S'T112'
p3244
tp3245
a(S'E3'
p3246
g7
(g11
S'U\x01\x00\x00\x00\x00\x00\x00'
p3247
tp3248
Rp3249
S'phosphorylation of Y510 by Src'
p3250
S'T113'
p3251
tp3252
a(S'E46'
p3253
g7
(g11
S'^\x01\x00\x00\x00\x00\x00\x00'
p3254
tp3255
Rp3256
S'Raf phosphorylation'
p3257
S'T113'
p3258
tp3259
asS'PMC2118676'
p3260
(lp3261
(S'E36'
p3262
I6
S'targets, c-Myc and cyclin E'
p3263
S'T112'
p3264
tp3265
a(S'E37'
p3266
I-1
S'targets, c-Myc and cyclin E'
p3267
S'T112'
p3268
tp3269
a(S'E35'
p3270
g7
(g11
S'\x06\x00\x00\x00\x00\x00\x00\x00'
p3271
tp3272
Rp3273
S'targets, c-Myc and cyclin'
p3274
S'T112'
p3275
tp3276
ag3265
ag3269
a(g3270
g7
(g11
S'\x06\x00\x00\x00\x00\x00\x00\x00'
p3277
tp3278
Rp3279
S'targets, c-Myc and cyclin'
p3280
S'T111'
p3281
tp3282
a(S'E9'
p3283
g7
(g11
S'\x0c\x00\x00\x00\x00\x00\x00\x00'
p3284
tp3285
Rp3286
S'NOTCH1 and FBW7 physically interact'
p3287
S'T115'
p3288
tp3289
a(S'E28'
p3290
I15
S'association between FBW7 and NOTCH1'
p3291
S'T115'
p3292
tp3293
a(S'E20'
p3294
g7
(g11
S'\x14\x00\x00\x00\x00\x00\x00\x00'
p3295
tp3296
Rp3297
S'interaction between DN FBW7 and N1-ICWT'
p3298
S'T115'
p3299
tp3300
a(S'E48'
p3301
g7
(g11
S'$\x00\x00\x00\x00\x00\x00\x00'
p3302
tp3303
Rp3304
S'GSK3-beta phosphorylation'
p3305
S'T115'
p3306
tp3307
a(S'E31'
p3308
I48
S'SCFFBW7alpha enhanced'
p3309
S'T114'
p3310
tp3311
a(S'E10'
p3312
g7
(g11
S'3\x00\x00\x00\x00\x00\x00\x00'
p3313
tp3314
Rp3315
S'CDK8 phosphorylation'
p3316
S'T114'
p3317
tp3318
a(S'E61'
p3319
I63
S'NOTCH1 expression'
p3320
S'T116'
p3321
tp3322
a(S'E58'
p3323
I75
S'CDK8 phosphorylation'
p3324
S'T116'
p3325
tp3326
a(S'E2'
p3327
g7
(g11
S'g\x00\x00\x00\x00\x00\x00\x00'
p3328
tp3329
Rp3330
S'NOTCH1 degron is recognized by FBW7 in the same manner, we generated DN FBW7 mutants in which R465'
p3331
S'T117'
p3332
tp3333
a(S'E6'
p3334
g7
(g11
S'k\x00\x00\x00\x00\x00\x00\x00'
p3335
tp3336
Rp3337
S'interaction with NOTCH1, c-Myc, and cyclin'
p3338
S'T118'
p3339
tp3340
a(g3334
g7
(g11
S'k\x00\x00\x00\x00\x00\x00\x00'
p3341
tp3342
Rp3343
S'interaction with NOTCH1, c-Myc, and cyclin'
p3344
S'T118'
p3345
tp3346
a(S'E5'
p3347
g7
(g11
S'k\x00\x00\x00\x00\x00\x00\x00'
p3348
tp3349
Rp3350
S'interaction with NOTCH1, c-Myc'
p3351
S'T118'
p3352
tp3353
a(S'E46'
p3354
g7
(g11
S'k\x00\x00\x00\x00\x00\x00\x00'
p3355
tp3356
Rp3357
S'interaction with NOTCH1, c-Myc'
p3358
S'T118'
p3359
tp3360
a(S'E4'
p3361
g7
(g11
S'k\x00\x00\x00\x00\x00\x00\x00'
p3362
tp3363
Rp3364
S'interaction with NOTCH1'
p3365
S'T118'
p3366
tp3367
a(S'E41'
p3368
g7
(g11
S'k\x00\x00\x00\x00\x00\x00\x00'
p3369
tp3370
Rp3371
S'interaction with NOTCH1, c-Myc, and cyclin'
p3372
S'T118'
p3373
tp3374
a(S'E40'
p3375
g7
(g11
S'k\x00\x00\x00\x00\x00\x00\x00'
p3376
tp3377
Rp3378
S'interaction with NOTCH1, c-Myc, and cyclin'
p3379
S'T118'
p3380
tp3381
a(S'E26'
p3382
g7
(g11
S'p\x00\x00\x00\x00\x00\x00\x00'
p3383
tp3384
Rp3385
S'FBW7 mutants as in C do not interact with c-Myc and cyclin'
p3386
S'T121'
p3387
tp3388
a(g3382
g7
(g11
S'p\x00\x00\x00\x00\x00\x00\x00'
p3389
tp3390
Rp3391
S'FBW7 mutants as in C do not interact with c-Myc and cyclin'
p3392
S'T120'
p3393
tp3394
a(S'E25'
p3395
g7
(g11
S'p\x00\x00\x00\x00\x00\x00\x00'
p3396
tp3397
Rp3398
S'FBW7 mutants as in C do not interact with c-Myc'
p3399
S'T121'
p3400
tp3401
a(g3395
g7
(g11
S'p\x00\x00\x00\x00\x00\x00\x00'
p3402
tp3403
Rp3404
S'FBW7 mutants as in C do not interact with c-Myc'
p3405
S'T120'
p3406
tp3407
a(S'E62'
p3408
I134
S'FBW7 expression'
p3409
S'T122'
p3410
tp3411
a(S'E8'
p3412
I132
S'targets of NOTCH1, HES1 and DELTEX1'
p3413
S'T122'
p3414
tp3415
a(S'E7'
p3416
I132
S'targets of NOTCH1, HES1 and DELTEX1'
p3417
S'T122'
p3418
tp3419
a(S'E52'
p3420
g7
(g11
S'\x84\x00\x00\x00\x00\x00\x00\x00'
p3421
tp3422
Rp3423
S'targets of NOTCH1, HES1'
p3424
S'T122'
p3425
tp3426
a(S'E56'
p3427
I133
S'FBW7 expression'
p3428
S'T123'
p3429
tp3430
a(S'E51'
p3431
g7
(g11
S'\x86\x00\x00\x00\x00\x00\x00\x00'
p3432
tp3433
Rp3434
S'FBW7 expression'
p3435
S'T123'
p3436
tp3437
a(S'E64'
p3438
g7
(g11
S'\x87\x00\x00\x00\x00\x00\x00\x00'
p3439
tp3440
Rp3441
S'FBW7 expression'
p3442
S'T124'
p3443
tp3444
a(S'E54'
p3445
g7
(g11
S'\x8c\x00\x00\x00\x00\x00\x00\x00'
p3446
tp3447
Rp3448
S'expression of the NOTCH1'
p3449
S'T125'
p3450
tp3451
a(S'E32'
p3452
g7
(g11
S'\x96\x00\x00\x00\x00\x00\x00\x00'
p3453
tp3454
Rp3455
S'N1-IC protein expression'
p3456
S'T126'
p3457
tp3458
a(g3452
g7
(g11
S'\x96\x00\x00\x00\x00\x00\x00\x00'
p3459
tp3460
Rp3461
S'N1-IC protein expression'
p3462
S'T127'
p3463
tp3464
a(g3452
g7
(g11
S'\x96\x00\x00\x00\x00\x00\x00\x00'
p3465
tp3466
Rp3467
S'N1-IC protein expression'
p3468
S'T128'
p3469
tp3470
a(g3452
g7
(g11
S'\x96\x00\x00\x00\x00\x00\x00\x00'
p3471
tp3472
Rp3473
S'N1-IC protein expression'
p3474
S'T129'
p3475
tp3476
a(S'E55'
p3477
g7
(g11
S'\x99\x00\x00\x00\x00\x00\x00\x00'
p3478
tp3479
Rp3480
S'c-Myc protein expression'
p3481
S'T129'
p3482
tp3483
a(g3477
g7
(g11
S'\x99\x00\x00\x00\x00\x00\x00\x00'
p3484
tp3485
Rp3486
S'c-Myc protein expression'
p3487
S'T128'
p3488
tp3489
a(g3477
g7
(g11
S'\x99\x00\x00\x00\x00\x00\x00\x00'
p3490
tp3491
Rp3492
S'c-Myc protein expression'
p3493
S'T127'
p3494
tp3495
a(S'E34'
p3496
I158
S'c-Myc expression'
p3497
S'T53'
p3498
tp3499
ag3499
ag3499
a(S'E57'
p3500
I159
S'N1-IC expression'
p3501
S'T53'
p3502
tp3503
ag3503
ag3503
a(S'E21'
p3504
I160
S'Actin expression'
p3505
S'T53'
p3506
tp3507
ag3507
ag3507
a(S'E30'
p3508
g7
(g11
S'\xa3\x00\x00\x00\x00\x00\x00\x00'
p3509
tp3510
Rp3511
S'FBW7 targets NOTCH1'
p3512
S'T132'
p3513
tp3514
a(S'E44'
p3515
g7
(g11
S'\xaa\x00\x00\x00\x00\x00\x00\x00'
p3516
tp3517
Rp3518
S'phosphorylation of N1-IC'
p3519
S'T134'
p3520
tp3521
a(S'E63'
p3522
g7
(g11
S'\xab\x00\x00\x00\x00\x00\x00\x00'
p3523
tp3524
Rp3525
S'phosphorylates N1-IC'
p3526
S'T134'
p3527
tp3528
a(S'E50'
p3529
g7
(g11
S'\xae\x00\x00\x00\x00\x00\x00\x00'
p3530
tp3531
Rp3532
S'phosphorylate N1-IC'
p3533
S'T134'
p3534
tp3535
a(S'E11'
p3536
g7
(g11
S'\xae\x00\x00\x00\x00\x00\x00\x00'
p3537
tp3538
Rp3539
S'phosphorylate N1-IC (minimally at S2514'
p3540
S'T134'
p3541
tp3542
a(S'E19'
p3543
g7
(g11
S'\xb4\x00\x00\x00\x00\x00\x00\x00'
p3544
tp3545
Rp3546
S'interact with the NOTCH1 and c-Myc degrons'
p3547
S'T133'
p3548
tp3549
a(S'E18'
p3550
I197
S'c-Myc is a direct tran scriptional target of NOTCH1'
p3551
S'T135'
p3552
tp3553
a(S'E12'
p3554
I198
S'c-Myc is a posttranslational target of FBW7'
p3555
S'T135'
p3556
tp3557
asS'PMC3174055'
p3558
(lp3559
(S'E12'
p3560
g7
(g11
S'\xb8\x00\x00\x00\x00\x00\x00\x00'
p3561
tp3562
Rp3563
S'phosphorylation of Akt/PKB and p70'
p3564
S'T37'
p3565
tp3566
a(S'E11'
p3567
g7
(g11
S'\xb8\x00\x00\x00\x00\x00\x00\x00'
p3568
tp3569
Rp3570
S'phosphorylation of Akt/PKB and p70 S6'
p3571
S'T37'
p3572
tp3573
a(S'E19'
p3574
I184
S'phosphorylation of Akt'
p3575
S'T37'
p3576
tp3577
a(S'E1'
p3578
g7
(g11
S'\xd7\x00\x00\x00\x00\x00\x00\x00'
p3579
tp3580
Rp3581
S'phosphorylation of Akt'
p3582
S'T38'
p3583
tp3584
a(S'E17'
p3585
g7
(g11
S'\xda\x00\x00\x00\x00\x00\x00\x00'
p3586
tp3587
Rp3588
S'phosphorylation of Akt'
p3589
S'T38'
p3590
tp3591
a(S'E18'
p3592
g7
(g11
S'\xde\x00\x00\x00\x00\x00\x00\x00'
p3593
tp3594
Rp3595
S'PKB phosphorylation'
p3596
S'T40'
p3597
tp3598
as.