(dp0
S'murine'
p1
(lp2
S'murine'
p3
asS'xenopus'
p4
(lp5
g4
aS'frog'
p6
asS'human'
p7
(lp8
g7
aS'man'
p9
aS'men'
p10
aS'woman'
p11
aS'women'
p12
asS'mouse'
p13
(lp14
S'mice'
p15
ag13
asS'drosophilia'
p16
(lp17
S'drosophila'
p18
aS'flies'
p19
aS'fly'
p20
as.